(dp0
L0L
F89.0
sL1L
F14.99
sL2L
F27.98
sL3L
F15.96
sL4L
F23.99
sL5L
F12.4
sL6L
F11.12
sL7L
F330.0
sL8L
F10.91
sL9L
F10.94
sL10L
F12.22
sL11L
F7.05
sL12L
F12.88
sL13L
F8.91
sL14L
F287.99
sL15L
F199.95
sL16L
F13.2
sL17L
F6.95
sL18L
F3.26
sL19L
F7.18
sL20L
F67.99
sL21L
F4.53
sL22L
F247.88
sL23L
F6.0
sL24L
F22.08
sL25L
F1.95
sL26L
F2.45
sL27L
F8.0
sL28L
F35.15
sL29L
F8.52
sL30L
F8.99
sL31L
F6.97
sL32L
F56.36
sL33L
F30.49
sL34L
F2.0
sL35L
F24.8
sL36L
F16.73
sL37L
F19.01
sL38L
F4.5
sL39L
F18.0
sL40L
F359.93
sL41L
F7.75
sL42L
F16.07
sL43L
F10.46
sL44L
F5.23
sL45L
L0L
sL46L
F16.57
sL47L
F16.68
sL48L
F21.99
sL49L
F4.5
sL50L
F7.49
sL51L
F117.99
sL52L
F399.99
sL53L
F3.85
sL54L
F6.14
sL55L
F8.99
sL56L
F4.55
sL57L
F7.99
sL58L
F7.25
sL59L
F8.58
sL60L
F249.99
sL61L
F1.14
sL62L
F62.95
sL63L
F3.14
sL64L
F149.84
sL65L
F549.95
sL66L
F3.46
sL67L
F31.11
sL68L
F64.19
sL69L
F7.47
sL70L
F36.21
sL71L
F4.0
sL72L
F32.2
sL73L
F30.49
sL74L
F29.99
sL75L
F3.47
sL76L
F265.99
sL77L
F9.63
sL78L
F34.99
sL79L
F15.02
sL80L
F3.72
sL81L
F13.25
sL82L
F3.8
sL83L
F89.99
sL84L
L0L
sL85L
F4.86
sL86L
F2.69
sL87L
F7.82
sL88L
F7.9
sL89L
F13.23
sL90L
F8.87
sL91L
F8.02
sL92L
F7.5
sL93L
F379.99
sL94L
F6.56
sL95L
F128.54
sL96L
F5.93
sL97L
F8.92
sL98L
F8.5
sL99L
F3.99
sL100L
F17.99
sL101L
F7.99
sL102L
F4.98
sL103L
F6.79
sL104L
F189.71
sL105L
F22.44
sL106L
F14.42
sL107L
F20.85
sL108L
F46.43
sL109L
F5.0
sL110L
F13.35
sL111L
F4.52
sL112L
F5.29
sL113L
F11.99
sL114L
F33.99
sL115L
F6.75
sL116L
F15.45
sL117L
F6.68
sL118L
F19.5
sL119L
F22.39
sL120L
F19.99
sL121L
F59.95
sL122L
F12.9
sL123L
F21.94
sL124L
F34.4
sL125L
F89.0
sL126L
F11.99
sL127L
F14.89
sL128L
F696.99
sL129L
F128.95
sL130L
F80.0
sL131L
F4.99
sL132L
F2.81
sL133L
F9.29
sL134L
F8.27
sL135L
F35.15
sL136L
F17.54
sL137L
F22.99
sL138L
F10.3
sL139L
F10.85
sL140L
F4.99
sL141L
F51.94
sL142L
F32.33
sL143L
F134.99
sL144L
F9.84
sL145L
F346.99
sL146L
F6.98
sL147L
F7.98
sL148L
F19.87
sL149L
F11.67
sL150L
F33.49
sL151L
F25.2
sL152L
F29.99
sL153L
F4.79
sL154L
F4.99
sL155L
L0L
sL156L
F2.98
sL157L
F8.99
sL158L
F2.46
sL159L
F17.99
sL160L
F22.15
sL161L
F7.25
sL162L
F129.99
sL163L
F5.39
sL164L
F549.0
sL165L
F39.95
sL166L
F14.31
sL167L
F7.45
sL168L
F38.4
sL169L
F94.99
sL170L
F2.74
sL171L
F15.5
sL172L
F8.6
sL173L
F5.92
sL174L
F4.69
sL175L
F23.95
sL176L
F9.5
sL177L
F1.74
sL178L
F345.0
sL179L
F2.7
sL180L
F15.54
sL181L
F15.16
sL182L
F9.9
sL183L
F99.99
sL184L
F16.47
sL185L
F20.0
sL186L
F27.99
sL187L
F11.99
sL188L
F829.95
sL189L
F8.5
sL190L
F5.74
sL191L
F28.49
sL192L
F24.21
sL193L
F4.5
sL194L
F32.97
sL195L
F135.28
sL196L
F4.39
sL197L
F5.19
sL198L
F12.99
sL199L
F4.27
sL200L
F7.15
sL201L
F39.99
sL202L
F3.25
sL203L
F14.8
sL204L
F402.14
sL205L
F133.25
sL206L
F3.13
sL207L
F3.0
sL208L
F2.95
sL209L
F17.4
sL210L
F253.02
sL211L
F40.18
sL212L
F189.95
sL213L
F9.99
sL214L
F99.89
sL215L
F188.18
sL216L
F17.54
sL217L
F51.17
sL218L
F5.37
sL219L
F12.49
sL220L
F271.45
sL221L
F8.98
sL222L
F35.01
sL223L
F11.91
sL224L
F9.27
sL225L
F62.5
sL226L
F2.99
sL227L
F7.99
sL228L
F20.96
sL229L
F16.69
sL230L
F21.64
sL231L
F13.14
sL232L
F2.75
sL233L
F15.46
sL234L
F2.0
sL235L
F7.18
sL236L
F207.95
sL237L
F23.13
sL238L
F3.53
sL239L
F142.45
sL240L
F64.99
sL241L
F0.64
sL242L
F0.01
sL243L
F269.99
sL244L
F7.75
sL245L
F44.96
sL246L
F9.02
sL247L
F63.1
sL248L
F4.29
sL249L
F13.9
sL250L
F4.83
sL251L
F154.39
sL252L
F13.12
sL253L
F4.49
sL254L
F5.98
sL255L
F6.82
sL256L
F670.0
sL257L
F99.0
sL258L
F7.13
sL259L
F12.93
sL260L
F3.92
sL261L
F11.6
sL262L
L0L
sL263L
F7.16
sL264L
F16.01
sL265L
F982.62
sL266L
F149.99
sL267L
F9.4
sL268L
F10.91
sL269L
F8.69
sL270L
F7.36
sL271L
F13.88
sL272L
F14.7
sL273L
F4.5
sL274L
F10.75
sL275L
F13.69
sL276L
F26.99
sL277L
F7.77
sL278L
F70.56
sL279L
F141.46
sL280L
F414.97
sL281L
F12.55
sL282L
F41.09
sL283L
F39.99
sL284L
F7.91
sL285L
F34.99
sL286L
F2.0
sL287L
F7.85
sL288L
F39.99
sL289L
F16.95
sL290L
F17.99
sL291L
F8.88
sL292L
F287.8
sL293L
F24.64
sL294L
F6.49
sL295L
F19.85
sL296L
F27.73
sL297L
F5.25
sL298L
F18.48
sL299L
F409.99
sL300L
F11.53
sL301L
F4.17
sL302L
F117.49
sL303L
F8.49
sL304L
F39.99
sL305L
F9.51
sL306L
F126.0
sL307L
F55.53
sL308L
F13.79
sL309L
F3.84
sL310L
F126.31
sL311L
F9.99
sL312L
F99.0
sL313L
F11.87
sL314L
F7.67
sL315L
F51.61
sL316L
F1.64
sL317L
F23.2
sL318L
F29.99
sL319L
L0L
sL320L
F44.95
sL321L
F9.71
sL322L
F91.24
sL323L
F45.72
sL324L
F6.92
sL325L
F21.95
sL326L
F2.68
sL327L
F65.7
sL328L
F129.99
sL329L
F5.17
sL330L
F5.87
sL331L
F6.68
sL332L
F249.99
sL333L
F8.23
sL334L
F23.0
sL335L
F31.24
sL336L
F9.34
sL337L
F34.29
sL338L
F18.8
sL339L
F57.29
sL340L
F29.33
sL341L
F8.82
sL342L
F10.84
sL343L
F26.0
sL344L
F12.04
sL345L
F37.92
sL346L
F19.74
sL347L
F8.96
sL348L
F9.74
sL349L
F4.99
sL350L
F8.1
sL351L
F4.0
sL352L
L0L
sL353L
F39.99
sL354L
F15.38
sL355L
F53.23
sL356L
F6.69
sL357L
F41.21
sL358L
F52.95
sL359L
F3.15
sL360L
F45.44
sL361L
F21.88
sL362L
F6.72
sL363L
F6.4
sL364L
F8.5
sL365L
F3.72
sL366L
F109.99
sL367L
F9.99
sL368L
F14.95
sL369L
F8.38
sL370L
F6.44
sL371L
F4.0
sL372L
F3.02
sL373L
F8.9
sL374L
F18.98
sL375L
F16.11
sL376L
F6.8
sL377L
F75.4
sL378L
F14.99
sL379L
F12.95
sL380L
F50.9
sL381L
F24.88
sL382L
F8.55
sL383L
F27.21
sL384L
F4.25
sL385L
F12.43
sL386L
L0L
sL387L
F199.99
sL388L
F49.99
sL389L
F33.03
sL390L
F96.59
sL391L
F32.95
sL392L
F12.96
sL393L
F3.0
sL394L
F6.48
sL395L
F8.78
sL396L
F2.05
sL397L
F9.96
sL398L
F14.36
sL399L
L0L
sL400L
F37.95
sL401L
L0L
sL402L
F15.4
sL403L
F6.65
sL404L
F9.97
sL405L
F11.97
sL406L
F37.99
sL407L
F14.95
sL408L
F12.72
sL409L
L0L
sL410L
F21.99
sL411L
F9.97
sL412L
F5.61
sL413L
F5.0
sL414L
F16.2
sL415L
F14.2
sL416L
F3.77
sL417L
F169.81
sL418L
F9.99
sL419L
F78.99
sL420L
F6.03
sL421L
F5.0
sL422L
L0L
sL423L
F223.99
sL424L
F1.94
sL425L
F16.99
sL426L
F46.99
sL427L
F107.0
sL428L
F149.99
sL429L
F3.06
sL430L
F17.42
sL431L
L0L
sL432L
F5.5
sL433L
F2.0
sL434L
F7.73
sL435L
F382.29
sL436L
F9.99
sL437L
F10.79
sL438L
F7.0
sL439L
F19.43
sL440L
F139.09
sL441L
F23.49
sL442L
F5.0
sL443L
F26.99
sL444L
F9.71
sL445L
F32.21
sL446L
F5.19
sL447L
F12.93
sL448L
F449.99
sL449L
F6.49
sL450L
F46.03
sL451L
F56.18
sL452L
F14.99
sL453L
F0.25
sL454L
F2.99
sL455L
F5.93
sL456L
F35.09
sL457L
F7.98
sL458L
F6.49
sL459L
F29.49
sL460L
F47.51
sL461L
F36.21
sL462L
F2.7
sL463L
F72.92
sL464L
F6.12
sL465L
F375.0
sL466L
F11.21
sL467L
F0.97
sL468L
F71.5
sL469L
F18.92
sL470L
F29.25
sL471L
F299.99
sL472L
F3.22
sL473L
F49.95
sL474L
F8.31
sL475L
F18.48
sL476L
F4.77
sL477L
F12.62
sL478L
F99.0
sL479L
F3.66
sL480L
L0L
sL481L
F12.42
sL482L
F285.0
sL483L
F12.86
sL484L
F5.53
sL485L
F99.89
sL486L
F29.95
sL487L
F17.77
sL488L
F68.82
sL489L
F25.48
sL490L
F13.35
sL491L
F179.99
sL492L
F177.99
sL493L
F7.9
sL494L
F14.6
sL495L
F119.0
sL496L
F39.99
sL497L
F161.42
sL498L
F54.0
sL499L
L0L
sL500L
F3.26
sL501L
F280.0
sL502L
F52.18
sL503L
L0L
sL504L
F25.99
sL505L
F9.99
sL506L
L0L
sL507L
F9.95
sL508L
F14.93
sL509L
F17.95
sL510L
F687.56
sL511L
L0L
sL512L
F36.99
sL513L
F4.54
sL514L
F6.43
sL515L
F20.4
sL516L
F78.99
sL517L
F13.09
sL518L
F34.99
sL519L
F5.78
sL520L
F165.48
sL521L
F3.92
sL522L
F27.67
sL523L
F44.96
sL524L
F4.99
sL525L
F9.73
sL526L
F9.32
sL527L
F28.88
sL528L
F57.79
sL529L
F32.3
sL530L
F375.0
sL531L
F84.99
sL532L
F3.97
sL533L
F74.75
sL534L
F15.67
sL535L
F23.79
sL536L
F5.42
sL537L
F12.17
sL538L
F3.62
sL539L
F20.74
sL540L
F6.0
sL541L
F199.99
sL542L
F22.82
sL543L
F10.0
sL544L
F16.48
sL545L
F41.36
sL546L
F5.99
sL547L
F114.95
sL548L
F245.95
sL549L
F124.09
sL550L
F8.38
sL551L
F41.5
sL552L
F6.74
sL553L
F95.99
sL554L
F65.18
sL555L
F16.28
sL556L
F6.22
sL557L
F36.5
sL558L
F13.15
sL559L
F10.86
sL560L
F15.99
sL561L
F98.76
sL562L
F5.99
sL563L
F355.0
sL564L
F3.98
sL565L
F9.3
sL566L
F17.25
sL567L
F19.89
sL568L
F349.99
sL569L
F32.0
sL570L
F6.64
sL571L
F18.92
sL572L
F72.55
sL573L
F15.2
sL574L
F17.96
sL575L
F6.5
sL576L
F4.4
sL577L
F288.88
sL578L
F71.6
sL579L
F11.87
sL580L
F43.55
sL581L
F59.99
sL582L
F3.64
sL583L
F12.5
sL584L
F11.7
sL585L
F129.95
sL586L
F10.94
sL587L
F11.99
sL588L
F199.99
sL589L
F128.88
sL590L
F19.54
sL591L
F28.99
sL592L
F59.0
sL593L
F13.99
sL594L
F121.99
sL595L
F3.83
sL596L
F122.3
sL597L
F192.45
sL598L
F0.99
sL599L
F14.08
sL600L
F6.9
sL601L
F68.24
sL602L
F7.25
sL603L
F10.89
sL604L
F49.95
sL605L
F1.43
sL606L
F10.57
sL607L
F36.95
sL608L
F7.1
sL609L
F304.99
sL610L
F55.49
sL611L
F15.78
sL612L
F199.0
sL613L
F4.78
sL614L
F7.19
sL615L
F9.9
sL616L
F14.99
sL617L
F22.99
sL618L
F5.05
sL619L
F11.67
sL620L
F10.99
sL621L
F88.99
sL622L
F26.99
sL623L
F75.99
sL624L
F183.75
sL625L
F22.31
sL626L
F89.56
sL627L
F572.25
sL628L
F23.64
sL629L
F18.99
sL630L
F55.99
sL631L
F16.99
sL632L
F9.84
sL633L
F529.99
sL634L
F27.53
sL635L
F6.99
sL636L
F13.85
sL637L
F8.01
sL638L
F4.72
sL639L
F21.99
sL640L
F43.7
sL641L
F25.99
sL642L
F5.22
sL643L
F24.95
sL644L
F224.0
sL645L
F9.24
sL646L
F6.92
sL647L
F236.95
sL648L
F38.95
sL649L
F24.99
sL650L
F6.1
sL651L
F19.73
sL652L
F124.94
sL653L
F22.2
sL654L
F47.0
sL655L
F9.06
sL656L
F3.65
sL657L
F5.63
sL658L
F34.99
sL659L
F40.99
sL660L
F135.98
sL661L
F8.48
sL662L
F6.0
sL663L
F53.5
sL664L
F4.61
sL665L
F32.5
sL666L
F31.99
sL667L
F5.48
sL668L
F3.05
sL669L
F113.15
sL670L
F192.99
sL671L
F14.99
sL672L
F58.99
sL673L
F139.84
sL674L
F11.99
sL675L
F135.05
sL676L
L0L
sL677L
F3.68
sL678L
F70.23
sL679L
F5.59
sL680L
F4.79
sL681L
F11.8
sL682L
F5.81
sL683L
F6.6
sL684L
F3.75
sL685L
F6.84
sL686L
F95.99
sL687L
F93.49
sL688L
F11.49
sL689L
F3.2
sL690L
F8.27
sL691L
F36.95
sL692L
F599.99
sL693L
F9.71
sL694L
F7.01
sL695L
F4.52
sL696L
F12.41
sL697L
F4.77
sL698L
F266.99
sL699L
F382.45
sL700L
F8.0
sL701L
F7.4
sL702L
F48.86
sL703L
F8.9
sL704L
F197.99
sL705L
F88.97
sL706L
F3.89
sL707L
F0.5
sL708L
F5.37
sL709L
F7.26
sL710L
F7.47
sL711L
F6.5
sL712L
F4.99
sL713L
F69.46
sL714L
F113.17
sL715L
F16.85
sL716L
F3.99
sL717L
F5.74
sL718L
F10.99
sL719L
L0L
sL720L
F21.99
sL721L
F54.42
sL722L
F114.43
sL723L
F14.51
sL724L
F7.38
sL725L
F3.32
sL726L
F8.31
sL727L
F18.35
sL728L
F4.85
sL729L
F3.8
sL730L
F39.0
sL731L
F4.21
sL732L
F3.28
sL733L
F85.88
sL734L
F5.72
sL735L
F13.25
sL736L
F149.0
sL737L
F54.19
sL738L
F11.5
sL739L
F13.89
sL740L
F223.15
sL741L
F2.99
sL742L
F4.0
sL743L
F53.0
sL744L
F99.99
sL745L
F10.99
sL746L
F3.66
sL747L
F16.99
sL748L
F29.99
sL749L
F133.39
sL750L
F132.99
sL751L
F917.28
sL752L
F12.76
sL753L
F46.99
sL754L
F25.99
sL755L
F14.14
sL756L
F8.25
sL757L
F63.65
sL758L
F49.38
sL759L
F15.48
sL760L
F209.99
sL761L
F36.95
sL762L
F20.94
sL763L
F445.94
sL764L
F375.0
sL765L
F35.99
sL766L
F3.86
sL767L
F6.43
sL768L
F32.71
sL769L
F7.99
sL770L
F78.8
sL771L
F5.17
sL772L
F53.89
sL773L
F39.49
sL774L
L0L
sL775L
F99.5
sL776L
F223.99
sL777L
F12.39
sL778L
F4.8
sL779L
F6.92
sL780L
F25.89
sL781L
F10.88
sL782L
F23.73
sL783L
F2.88
sL784L
F75.42
sL785L
F13.95
sL786L
F17.99
sL787L
F63.6
sL788L
F66.98
sL789L
F10.19
sL790L
F33.03
sL791L
F2.39
sL792L
F28.3
sL793L
F5.76
sL794L
F15.4
sL795L
F78.5
sL796L
F4.28
sL797L
F7.29
sL798L
F111.99
sL799L
F99.0
sL800L
F1.42
sL801L
F37.09
sL802L
F18.61
sL803L
F7.96
sL804L
F7.24
sL805L
F388.0
sL806L
F103.58
sL807L
F151.53
sL808L
F8.9
sL809L
F3.3
sL810L
F9.99
sL811L
F34.95
sL812L
F28.69
sL813L
F9.49
sL814L
F13.46
sL815L
F130.17
sL816L
F27.46
sL817L
F16.15
sL818L
F10.13
sL819L
F27.97
sL820L
F3.75
sL821L
F9.81
sL822L
F41.33
sL823L
F9.32
sL824L
F21.0
sL825L
F43.85
sL826L
F3.47
sL827L
F4.26
sL828L
F229.99
sL829L
F23.89
sL830L
F11.99
sL831L
F129.99
sL832L
F24.99
sL833L
F19.19
sL834L
F7.65
sL835L
F6.78
sL836L
F10.99
sL837L
F9.59
sL838L
L0L
sL839L
F215.5
sL840L
F29.38
sL841L
F12.13
sL842L
F4.7
sL843L
F48.1
sL844L
F4.47
sL845L
F10.79
sL846L
F6.92
sL847L
F249.0
sL848L
F4.49
sL849L
F6.78
sL850L
F24.06
sL851L
F272.11
sL852L
F8.4
sL853L
F86.99
sL854L
F18.48
sL855L
F7.01
sL856L
F144.45
sL857L
F115.92
sL858L
F18.03
sL859L
F8.16
sL860L
F5.73
sL861L
F149.99
sL862L
F9.39
sL863L
F6.06
sL864L
F19.99
sL865L
F198.99
sL866L
F4.94
sL867L
F14.77
sL868L
F35.99
sL869L
F4.47
sL870L
F10.0
sL871L
F8.89
sL872L
F6.65
sL873L
F25.69
sL874L
F6.23
sL875L
F74.99
sL876L
F208.95
sL877L
F5.57
sL878L
F10.0
sL879L
F109.99
sL880L
F4.18
sL881L
F263.55
sL882L
F104.99
sL883L
F13.51
sL884L
F2.72
sL885L
F9.2
sL886L
F47.99
sL887L
F7.61
sL888L
F399.99
sL889L
F4.98
sL890L
F24.95
sL891L
F25.27
sL892L
F8.17
sL893L
F19.77
sL894L
F56.19
sL895L
F89.99
sL896L
F14.49
sL897L
F39.99
sL898L
F15.5
sL899L
F27.73
sL900L
F6.42
sL901L
F7.56
sL902L
F11.83
sL903L
F3.27
sL904L
F8.9
sL905L
F55.13
sL906L
F9.01
sL907L
F9.98
sL908L
F129.99
sL909L
F29.1
sL910L
F8.99
sL911L
F359.93
sL912L
F7.77
sL913L
F55.29
sL914L
F214.99
sL915L
F5.72
sL916L
F14.5
sL917L
F2.75
sL918L
F3.6
sL919L
F24.0
sL920L
F3.89
sL921L
F10.0
sL922L
F6.63
sL923L
F33.24
sL924L
F19.99
sL925L
F3.13
sL926L
F89.89
sL927L
F9.9
sL928L
F159.99
sL929L
F9.89
sL930L
F69.99
sL931L
F9.49
sL932L
F15.83
sL933L
F5.9
sL934L
F60.02
sL935L
F34.95
sL936L
F14.84
sL937L
F6.82
sL938L
F5.36
sL939L
F4.45
sL940L
F8.73
sL941L
F6.19
sL942L
L0L
sL943L
F9.99
sL944L
F5.29
sL945L
F217.0
sL946L
F99.5
sL947L
F14.99
sL948L
F3.79
sL949L
F2.11
sL950L
F69.19
sL951L
F459.99
sL952L
F22.13
sL953L
F59.99
sL954L
F79.74
sL955L
F32.96
sL956L
F8.0
sL957L
F9.9
sL958L
F4.26
sL959L
F7.71
sL960L
F12.99
sL961L
F24.99
sL962L
F68.39
sL963L
F5.14
sL964L
F18.3
sL965L
F2.75
sL966L
F4.99
sL967L
F18.52
sL968L
F7.2
sL969L
F4.69
sL970L
F30.66
sL971L
F217.49
sL972L
F159.95
sL973L
F1.19
sL974L
F6.99
sL975L
F17.45
sL976L
F7.91
sL977L
F33.02
sL978L
F79.99
sL979L
F4.34
sL980L
F27.99
sL981L
F10.42
sL982L
F61.5
sL983L
F6.5
sL984L
F119.0
sL985L
F109.0
sL986L
F52.99
sL987L
F3.95
sL988L
F4.58
sL989L
F46.84
sL990L
F195.4
sL991L
F32.37
sL992L
F68.27
sL993L
F21.99
sL994L
F35.0
sL995L
F4.39
sL996L
F7.32
sL997L
F17.33
sL998L
F11.99
sL999L
F74.07
sL1000L
F28.0
sL1001L
F124.98
sL1002L
F3.53
sL1003L
F174.99
sL1004L
F78.0
sL1005L
F2.94
sL1006L
F43.41
sL1007L
F7.25
sL1008L
F279.25
sL1009L
F78.0
sL1010L
F4.37
sL1011L
F12.94
sL1012L
F21.96
sL1013L
F5.5
sL1014L
F46.0
sL1015L
F3.86
sL1016L
F22.89
sL1017L
F10.5
sL1018L
F12.5
sL1019L
F18.59
sL1020L
F3.03
sL1021L
F59.99
sL1022L
F17.99
sL1023L
F99.0
sL1024L
F79.99
sL1025L
F1.95
sL1026L
F8.7
sL1027L
F12.99
sL1028L
F8.49
sL1029L
F10.53
sL1030L
F14.89
sL1031L
L0L
sL1032L
F4.39
sL1033L
L0L
sL1034L
F29.86
sL1035L
F53.35
sL1036L
F1.7
sL1037L
F20.97
sL1038L
F11.75
sL1039L
F5.49
sL1040L
F12.46
sL1041L
F89.99
sL1042L
F3.69
sL1043L
F7.65
sL1044L
F15.38
sL1045L
F218.99
sL1046L
F19.99
sL1047L
F99.0
sL1048L
F4.88
sL1049L
F14.47
sL1050L
F4.88
sL1051L
F9.8
sL1052L
F8.33
sL1053L
F13.99
sL1054L
F14.93
sL1055L
F13.99
sL1056L
F9.39
sL1057L
F9.44
sL1058L
F299.95
sL1059L
F5.0
sL1060L
F4.32
sL1061L
F8.5
sL1062L
F52.0
sL1063L
F5.98
sL1064L
F7.53
sL1065L
F16.48
sL1066L
F17.34
sL1067L
F11.23
sL1068L
F6.0
sL1069L
F11.99
sL1070L
F8.79
sL1071L
F377.0
sL1072L
F255.6
sL1073L
F3.95
sL1074L
F10.64
sL1075L
F2.47
sL1076L
F21.32
sL1077L
F20.39
sL1078L
F46.68
sL1079L
F7.19
sL1080L
F2.85
sL1081L
F26.43
sL1082L
F282.0
sL1083L
F169.99
sL1084L
F39.99
sL1085L
F183.99
sL1086L
F27.0
sL1087L
F216.5
sL1088L
F6.65
sL1089L
F769.99
sL1090L
F6.45
sL1091L
F5.26
sL1092L
F808.98
sL1093L
F5.23
sL1094L
F3.2
sL1095L
F99.95
sL1096L
F18.98
sL1097L
F3.17
sL1098L
F112.98
sL1099L
F10.4
sL1100L
F104.99
sL1101L
F45.48
sL1102L
F6.27
sL1103L
F7.74
sL1104L
F129.99
sL1105L
F8.19
sL1106L
F6.55
sL1107L
F31.99
sL1108L
F0.97
sL1109L
F13.11
sL1110L
F5.7
sL1111L
F8.89
sL1112L
F209.42
sL1113L
F12.51
sL1114L
F4.03
sL1115L
F23.99
sL1116L
F14.62
sL1117L
F98.95
sL1118L
F22.45
sL1119L
F8.49
sL1120L
F117.8
sL1121L
F4.72
sL1122L
F4.39
sL1123L
F99.99
sL1124L
F50.0
sL1125L
F3.99
sL1126L
F13.36
sL1127L
F99.99
sL1128L
F107.24
sL1129L
F41.63
sL1130L
F29.99
sL1131L
F281.5
sL1132L
F135.99
sL1133L
F11.45
sL1134L
F5.0
sL1135L
F62.0
sL1136L
F13.99
sL1137L
F8.01
sL1138L
F6.49
sL1139L
F11.63
sL1140L
F269.88
sL1141L
F378.7
sL1142L
F185.99
sL1143L
F5.15
sL1144L
F20.49
sL1145L
F94.99
sL1146L
F257.99
sL1147L
F149.99
sL1148L
F12.99
sL1149L
F54.98
sL1150L
F645.0
sL1151L
F117.99
sL1152L
F7.91
sL1153L
F29.99
sL1154L
F8.36
sL1155L
F369.0
sL1156L
F6.86
sL1157L
F37.94
sL1158L
F78.37
sL1159L
F32.92
sL1160L
F158.99
sL1161L
F12.97
sL1162L
F238.5
sL1163L
F31.92
sL1164L
F11.99
sL1165L
F10.87
sL1166L
F3.14
sL1167L
F89.45
sL1168L
F42.95
sL1169L
F23.87
sL1170L
F8.14
sL1171L
F27.25
sL1172L
F396.03
sL1173L
F126.0
sL1174L
F36.26
sL1175L
F2.72
sL1176L
F17.99
sL1177L
F64.99
sL1178L
F29.74
sL1179L
F424.99
sL1180L
F5.89
sL1181L
F3.34
sL1182L
F6.25
sL1183L
F5.99
sL1184L
F5.99
sL1185L
F20.74
sL1186L
F294.0
sL1187L
F24.0
sL1188L
F49.29
sL1189L
F10.82
sL1190L
F38.12
sL1191L
F7.19
sL1192L
F11.87
sL1193L
F17.77
sL1194L
F10.11
sL1195L
F5.75
sL1196L
F7.99
sL1197L
F52.15
sL1198L
F15.89
sL1199L
F5.99
sL1200L
F8.29
sL1201L
F299.99
sL1202L
L0L
sL1203L
F2.98
sL1204L
F5.09
sL1205L
F58.54
sL1206L
F697.0
sL1207L
F4.95
sL1208L
F9.52
sL1209L
F65.18
sL1210L
F236.51
sL1211L
F80.0
sL1212L
F18.18
sL1213L
F11.0
sL1214L
F28.99
sL1215L
F5.79
sL1216L
F11.25
sL1217L
F79.95
sL1218L
L0L
sL1219L
F9.47
sL1220L
F4.59
sL1221L
F356.89
sL1222L
F10.83
sL1223L
F72.99
sL1224L
F4.89
sL1225L
F9.68
sL1226L
F51.37
sL1227L
F3.96
sL1228L
F4.85
sL1229L
F10.95
sL1230L
F22.55
sL1231L
F19.11
sL1232L
L0L
sL1233L
F1.0
sL1234L
F9.89
sL1235L
F16.99
sL1236L
F7.23
sL1237L
F51.26
sL1238L
F48.25
sL1239L
F7.49
sL1240L
F7.8
sL1241L
F290.02
sL1242L
F8.89
sL1243L
F19.5
sL1244L
F9.78
sL1245L
F13.61
sL1246L
F14.33
sL1247L
F168.13
sL1248L
F9.25
sL1249L
F59.99
sL1250L
F27.99
sL1251L
F8.37
sL1252L
F5.7
sL1253L
F2.99
sL1254L
F36.62
sL1255L
F179.99
sL1256L
F59.99
sL1257L
F4.34
sL1258L
F22.76
sL1259L
F18.26
sL1260L
F6.84
sL1261L
F14.33
sL1262L
F27.97
sL1263L
F13.95
sL1264L
F10.92
sL1265L
F13.99
sL1266L
F25.81
sL1267L
F11.71
sL1268L
F249.0
sL1269L
F98.0
sL1270L
F28.31
sL1271L
F33.54
sL1272L
F302.68
sL1273L
F6.24
sL1274L
F40.23
sL1275L
F20.25
sL1276L
F45.74
sL1277L
F195.0
sL1278L
F9.01
sL1279L
F9.1
sL1280L
F70.33
sL1281L
F10.55
sL1282L
F29.99
sL1283L
F10.38
sL1284L
F3.52
sL1285L
F100.9
sL1286L
F29.65
sL1287L
F2.69
sL1288L
F25.99
sL1289L
F10.49
sL1290L
F24.0
sL1291L
F27.49
sL1292L
F11.49
sL1293L
F13.99
sL1294L
F8.47
sL1295L
F13.85
sL1296L
F4.5
sL1297L
F8.41
sL1298L
F3.59
sL1299L
F9.0
sL1300L
F7.71
sL1301L
F765.87
sL1302L
F12.9
sL1303L
F6.78
sL1304L
F7.56
sL1305L
F29.99
sL1306L
F20.07
sL1307L
F3.99
sL1308L
L0L
sL1309L
F39.99
sL1310L
F6.9
sL1311L
F43.06
sL1312L
F35.06
sL1313L
F499.95
sL1314L
F6.98
sL1315L
F44.67
sL1316L
F19.98
sL1317L
F3.48
sL1318L
F7.27
sL1319L
F499.99
sL1320L
F12.42
sL1321L
F3.2
sL1322L
F26.39
sL1323L
F11.41
sL1324L
F6.94
sL1325L
F16.6
sL1326L
F15.29
sL1327L
F64.99
sL1328L
F6.59
sL1329L
F6.16
sL1330L
F129.95
sL1331L
F90.35
sL1332L
F67.22
sL1333L
F12.99
sL1334L
F26.95
sL1335L
F13.5
sL1336L
F12.0
sL1337L
F18.79
sL1338L
F174.12
sL1339L
F6.96
sL1340L
F21.37
sL1341L
F11.36
sL1342L
F9.85
sL1343L
F31.08
sL1344L
F7.21
sL1345L
F10.29
sL1346L
F4.99
sL1347L
F87.0
sL1348L
F79.0
sL1349L
F7.04
sL1350L
F43.5
sL1351L
F12.67
sL1352L
L0L
sL1353L
F20.66
sL1354L
F7.68
sL1355L
F1.37
sL1356L
F149.0
sL1357L
F88.88
sL1358L
L0L
sL1359L
F8.9
sL1360L
F4.91
sL1361L
F6.52
sL1362L
F7.49
sL1363L
F199.99
sL1364L
F6.79
sL1365L
F13.36
sL1366L
F0.69
sL1367L
L0L
sL1368L
F4.54
sL1369L
F18.4
sL1370L
F82.38
sL1371L
F2.51
sL1372L
F85.89
sL1373L
F34.23
sL1374L
F6.99
sL1375L
F5.49
sL1376L
F5.96
sL1377L
F8.4
sL1378L
F249.99
sL1379L
F7.99
sL1380L
F5.44
sL1381L
F38.29
sL1382L
F999.99
sL1383L
F3.5
sL1384L
F31.99
sL1385L
F19.99
sL1386L
F28.95
sL1387L
F18.99
sL1388L
F176.69
sL1389L
F11.31
sL1390L
F74.49
sL1391L
F27.87
sL1392L
F30.0
sL1393L
F7.99
sL1394L
L0L
sL1395L
F35.86
sL1396L
F0.9
sL1397L
F49.99
sL1398L
F8.16
sL1399L
F286.9
sL1400L
F3.09
sL1401L
F7.99
sL1402L
F4.92
sL1403L
F11.2
sL1404L
F47.99
sL1405L
F33.71
sL1406L
F15.9
sL1407L
F10.67
sL1408L
F8.22
sL1409L
F25.81
sL1410L
F27.03
sL1411L
F4.24
sL1412L
F29.45
sL1413L
L0L
sL1414L
F10.49
sL1415L
F9.79
sL1416L
F3.45
sL1417L
F34.29
sL1418L
F12.19
sL1419L
F10.63
sL1420L
F109.95
sL1421L
F20.0
sL1422L
F29.0
sL1423L
F10.5
sL1424L
F13.99
sL1425L
F129.99
sL1426L
F19.15
sL1427L
F6.59
sL1428L
F5.48
sL1429L
F14.0
sL1430L
F64.99
sL1431L
F10.72
sL1432L
F5.15
sL1433L
F9.72
sL1434L
F16.99
sL1435L
F17.95
sL1436L
F5.14
sL1437L
F12.38
sL1438L
F55.22
sL1439L
F13.85
sL1440L
F76.67
sL1441L
F5.78
sL1442L
F12.38
sL1443L
F16.02
sL1444L
F7.59
sL1445L
F8.11
sL1446L
F4.49
sL1447L
F88.88
sL1448L
F428.42
sL1449L
F3.77
sL1450L
F10.05
sL1451L
F10.0
sL1452L
F43.0
sL1453L
F8.08
sL1454L
F77.55
sL1455L
F558.87
sL1456L
F279.99
sL1457L
F12.09
sL1458L
L0L
sL1459L
F274.71
sL1460L
F6.8
sL1461L
F3.79
sL1462L
F12.75
sL1463L
F12.9
sL1464L
F105.29
sL1465L
L0L
sL1466L
F61.35
sL1467L
F136.0
sL1468L
F129.99
sL1469L
F45.99
sL1470L
F28.06
sL1471L
F41.99
sL1472L
F14.95
sL1473L
F20.97
sL1474L
F54.99
sL1475L
F32.7
sL1476L
F7.33
sL1477L
F82.0
sL1478L
F23.89
sL1479L
F7.99
sL1480L
F34.99
sL1481L
F252.95
sL1482L
F8.21
sL1483L
F11.75
sL1484L
F15.68
sL1485L
F17.77
sL1486L
F61.99
sL1487L
F159.0
sL1488L
F177.99
sL1489L
F3.79
sL1490L
F149.99
sL1491L
F4.43
sL1492L
F62.88
sL1493L
F16.52
sL1494L
F8.42
sL1495L
F13.68
sL1496L
F7.72
sL1497L
F9.2
sL1498L
F427.07
sL1499L
F5.39
sL1500L
F12.68
sL1501L
F18.3
sL1502L
F99.99
sL1503L
F4.3
sL1504L
F6.68
sL1505L
F3.8
sL1506L
F179.69
sL1507L
F5.66
sL1508L
F5.18
sL1509L
F6.76
sL1510L
F46.52
sL1511L
F3.65
sL1512L
F5.01
sL1513L
F14.72
sL1514L
F5.25
sL1515L
L0L
sL1516L
F9.51
sL1517L
F23.06
sL1518L
F5.74
sL1519L
F3.74
sL1520L
F13.42
sL1521L
F197.8
sL1522L
F544.65
sL1523L
F20.99
sL1524L
F4.74
sL1525L
F29.01
sL1526L
F128.25
sL1527L
F4.82
sL1528L
F4.83
sL1529L
F4.95
sL1530L
F120.16
sL1531L
F10.53
sL1532L
F41.84
sL1533L
F10.23
sL1534L
F13.47
sL1535L
F2.1
sL1536L
F8.99
sL1537L
F4.76
sL1538L
F8.96
sL1539L
F43.93
sL1540L
F422.52
sL1541L
F24.98
sL1542L
F374.99
sL1543L
F27.16
sL1544L
F10.72
sL1545L
F21.0
sL1546L
F188.9
sL1547L
F7.14
sL1548L
F4.01
sL1549L
L0L
sL1550L
F10.99
sL1551L
F7.99
sL1552L
F7.99
sL1553L
F11.98
sL1554L
F10.0
sL1555L
F208.12
sL1556L
F55.98
sL1557L
F6.05
sL1558L
F15.64
sL1559L
F4.4
sL1560L
F53.7
sL1561L
F6.99
sL1562L
F66.74
sL1563L
F14.98
sL1564L
F14.05
sL1565L
F7.91
sL1566L
F15.47
sL1567L
F53.88
sL1568L
F9.76
sL1569L
F3.37
sL1570L
F7.0
sL1571L
F25.03
sL1572L
F20.23
sL1573L
F9.2
sL1574L
F13.75
sL1575L
F14.69
sL1576L
F17.28
sL1577L
F5.5
sL1578L
F10.2
sL1579L
F11.49
sL1580L
F5.05
sL1581L
F22.95
sL1582L
F798.86
sL1583L
F64.6
sL1584L
F10.05
sL1585L
F3.66
sL1586L
F19.99
sL1587L
F13.79
sL1588L
L0L
sL1589L
F23.59
sL1590L
F17.49
sL1591L
L0L
sL1592L
F10.75
sL1593L
F9.2
sL1594L
F69.99
sL1595L
F1.63
sL1596L
F5.75
sL1597L
F10.47
sL1598L
F5.45
sL1599L
F7.75
sL1600L
F34.62
sL1601L
F39.95
sL1602L
F49.95
sL1603L
F9.99
sL1604L
F1.75
sL1605L
F115.82
sL1606L
F4.19
sL1607L
F290.0
sL1608L
F115.65
sL1609L
F21.79
sL1610L
F12.98
sL1611L
F36.98
sL1612L
F14.9
sL1613L
F10.9
sL1614L
F4.45
sL1615L
F3.41
sL1616L
F4.83
sL1617L
F73.99
sL1618L
F4.41
sL1619L
F16.99
sL1620L
F39.99
sL1621L
L0L
sL1622L
F240.0
sL1623L
F6.73
sL1624L
F96.91
sL1625L
F9.63
sL1626L
F14.99
sL1627L
F12.5
sL1628L
F12.86
sL1629L
F50.6
sL1630L
F129.99
sL1631L
F3.96
sL1632L
F3.27
sL1633L
F239.95
sL1634L
F98.75
sL1635L
F12.5
sL1636L
F9.64
sL1637L
F12.5
sL1638L
F11.55
sL1639L
F6.99
sL1640L
F3.0
sL1641L
F15.49
sL1642L
L0L
sL1643L
F19.99
sL1644L
F11.55
sL1645L
F329.8
sL1646L
F42.0
sL1647L
F7.75
sL1648L
F18.78
sL1649L
F29.99
sL1650L
L0L
sL1651L
F187.72
sL1652L
F20.0
sL1653L
F201.54
sL1654L
F29.95
sL1655L
F6.65
sL1656L
F109.99
sL1657L
F5.21
sL1658L
F5.48
sL1659L
F24.99
sL1660L
F0.69
sL1661L
F150.13
sL1662L
F18.59
sL1663L
F8.55
sL1664L
F65.18
sL1665L
F9.7
sL1666L
F17.41
sL1667L
F6.4
sL1668L
F7.98
sL1669L
F8.8
sL1670L
F17.28
sL1671L
F6.99
sL1672L
F56.39
sL1673L
F74.95
sL1674L
F48.46
sL1675L
L0L
sL1676L
F4.86
sL1677L
F5.55
sL1678L
F12.5
sL1679L
F288.68
sL1680L
F11.18
sL1681L
F75.47
sL1682L
F10.15
sL1683L
F8.34
sL1684L
F12.77
sL1685L
F59.99
sL1686L
F9.75
sL1687L
F6.76
sL1688L
F15.9
sL1689L
F47.99
sL1690L
F17.68
sL1691L
F8.68
sL1692L
F24.4
sL1693L
F8.44
sL1694L
F15.17
sL1695L
F23.99
sL1696L
F30.73
sL1697L
F7.61
sL1698L
F20.95
sL1699L
F9.86
sL1700L
F429.0
sL1701L
F49.99
sL1702L
F18.84
sL1703L
F30.95
sL1704L
L0L
sL1705L
F3.95
sL1706L
F149.99
sL1707L
F22.1
sL1708L
F21.65
sL1709L
F159.97
sL1710L
F74.72
sL1711L
F19.2
sL1712L
F56.95
sL1713L
F11.59
sL1714L
F5.8
sL1715L
F4.97
sL1716L
F79.0
sL1717L
F121.11
sL1718L
F93.29
sL1719L
F15.69
sL1720L
F5.0
sL1721L
F30.88
sL1722L
F3.95
sL1723L
F143.37
sL1724L
F14.7
sL1725L
L0L
sL1726L
F12.49
sL1727L
F7.85
sL1728L
F20.0
sL1729L
F5.24
sL1730L
F13.95
sL1731L
F2.01
sL1732L
F11.0
sL1733L
F4.56
sL1734L
F22.15
sL1735L
F17.55
sL1736L
L0L
sL1737L
F7.71
sL1738L
F11.49
sL1739L
F10.46
sL1740L
F9.99
sL1741L
F13.84
sL1742L
F7.59
sL1743L
F62.38
sL1744L
F214.99
sL1745L
F7.3
sL1746L
F9.03
sL1747L
F270.43
sL1748L
F7.19
sL1749L
F75.56
sL1750L
F11.89
sL1751L
F6.02
sL1752L
F6.96
sL1753L
F10.18
sL1754L
F12.98
sL1755L
F22.0
sL1756L
F14.49
sL1757L
F4.88
sL1758L
F6.49
sL1759L
F16.82
sL1760L
F15.99
sL1761L
F180.9
sL1762L
F5.36
sL1763L
F15.92
sL1764L
F75.89
sL1765L
L0L
sL1766L
F5.33
sL1767L
L0L
sL1768L
F34.85
sL1769L
F14.49
sL1770L
F6.99
sL1771L
F223.01
sL1772L
F197.0
sL1773L
F22.95
sL1774L
F4.16
sL1775L
F4.5
sL1776L
F146.15
sL1777L
F14.44
sL1778L
F3.62
sL1779L
F6.62
sL1780L
F349.98
sL1781L
F13.85
sL1782L
F6.6
sL1783L
F35.69
sL1784L
F15.99
sL1785L
F14.99
sL1786L
F349.99
sL1787L
F12.88
sL1788L
F11.99
sL1789L
F43.0
sL1790L
F51.0
sL1791L
F3.43
sL1792L
F38.97
sL1793L
F29.18
sL1794L
F34.99
sL1795L
F7.15
sL1796L
F32.0
sL1797L
F4.99
sL1798L
F16.74
sL1799L
F35.8
sL1800L
F7.73
sL1801L
F52.96
sL1802L
F11.73
sL1803L
F2.75
sL1804L
F6.49
sL1805L
F336.66
sL1806L
F12.31
sL1807L
F199.9
sL1808L
F11.91
sL1809L
F13.0
sL1810L
F408.71
sL1811L
F9.59
sL1812L
F9.95
sL1813L
F23.95
sL1814L
F12.86
sL1815L
F254.99
sL1816L
F418.99
sL1817L
F44.25
sL1818L
F9.38
sL1819L
F19.01
sL1820L
F4.85
sL1821L
F17.51
sL1822L
F8.82
sL1823L
F51.99
sL1824L
F200.79
sL1825L
F3.9
sL1826L
F13.7
sL1827L
F2.75
sL1828L
F5.18
sL1829L
F4.45
sL1830L
L0L
sL1831L
F7.13
sL1832L
F9.99
sL1833L
F12.11
sL1834L
F7.82
sL1835L
F10.74
sL1836L
F80.0
sL1837L
F12.86
sL1838L
F9.99
sL1839L
F12.15
sL1840L
F3.0
sL1841L
F10.04
sL1842L
F14.28
sL1843L
F9.25
sL1844L
F369.99
sL1845L
F14.79
sL1846L
F169.99
sL1847L
F13.26
sL1848L
F99.99
sL1849L
F8.48
sL1850L
F11.99
sL1851L
F9.79
sL1852L
F169.95
sL1853L
F285.29
sL1854L
F17.25
sL1855L
F439.99
sL1856L
F39.99
sL1857L
F9.93
sL1858L
F3.95
sL1859L
F99.0
sL1860L
F3.13
sL1861L
F349.99
sL1862L
F109.95
sL1863L
F99.99
sL1864L
F169.0
sL1865L
F10.74
sL1866L
L0L
sL1867L
F7.95
sL1868L
F10.99
sL1869L
F16.32
sL1870L
F104.03
sL1871L
F14.99
sL1872L
F80.0
sL1873L
F10.79
sL1874L
F14.99
sL1875L
F13.85
sL1876L
F0.01
sL1877L
F11.03
sL1878L
F31.97
sL1879L
F9.26
sL1880L
F16.99
sL1881L
F57.49
sL1882L
F8.06
sL1883L
F21.52
sL1884L
F5.47
sL1885L
F18.99
sL1886L
F57.0
sL1887L
F28.49
sL1888L
F49.95
sL1889L
F127.31
sL1890L
F39.99
sL1891L
F69.0
sL1892L
F5.69
sL1893L
F17.12
sL1894L
F16.57
sL1895L
F15.01
sL1896L
F7.31
sL1897L
F48.0
sL1898L
F3.14
sL1899L
F13.32
sL1900L
F7.45
sL1901L
F6.1
sL1902L
F9.99
sL1903L
F126.43
sL1904L
F23.49
sL1905L
F8.93
sL1906L
F10.94
sL1907L
F5.98
sL1908L
F4.36
sL1909L
F20.65
sL1910L
F11.28
sL1911L
F32.3
sL1912L
F6.68
sL1913L
F16.14
sL1914L
F148.0
sL1915L
F22.1
sL1916L
F229.99
sL1917L
F8.01
sL1918L
F15.68
sL1919L
F30.49
sL1920L
F2.99
sL1921L
F5.88
sL1922L
F13.0
sL1923L
F11.67
sL1924L
F14.98
sL1925L
F70.0
sL1926L
F89.37
sL1927L
F72.99
sL1928L
F11.84
sL1929L
F2.48
sL1930L
F3.21
sL1931L
F6.5
sL1932L
F207.99
sL1933L
F11.56
sL1934L
F9.99
sL1935L
F7.29
sL1936L
F5.99
sL1937L
F9.99
sL1938L
F277.97
sL1939L
L0L
sL1940L
F102.0
sL1941L
F94.15
sL1942L
F49.99
sL1943L
F229.45
sL1944L
F36.99
sL1945L
F105.97
sL1946L
F10.01
sL1947L
F253.43
sL1948L
F319.99
sL1949L
L0L
sL1950L
F6.02
sL1951L
F11.33
sL1952L
F231.22
sL1953L
F104.48
sL1954L
F4.48
sL1955L
L0L
sL1956L
F10.68
sL1957L
F75.47
sL1958L
F11.67
sL1959L
F17.15
sL1960L
F5.3
sL1961L
F20.29
sL1962L
F4.62
sL1963L
F30.0
sL1964L
F134.95
sL1965L
F49.99
sL1966L
F17.64
sL1967L
F7.33
sL1968L
F17.54
sL1969L
F6.97
sL1970L
F3.9
sL1971L
F157.99
sL1972L
F6.79
sL1973L
F79.43
sL1974L
F7.89
sL1975L
F12.25
sL1976L
L0L
s.