(dp0
L0L
F4.588235294117647
sL1L
F4.111111111111111
sL2L
F4.461538461538462
sL3L
F4.726027397260274
sL4L
F4.096774193548387
sL5L
F4.625
sL6L
F4.25
sL7L
F4.2
sL8L
F4.517241379310345
sL9L
F4.282608695652174
sL10L
F4.775862068965517
sL11L
F4.457142857142857
sL12L
F4.2
sL13L
F4.6
sL14L
F4.7407407407407405
sL15L
F4.0
sL16L
F4.4
sL17L
F4.666666666666667
sL18L
F4.142857142857143
sL19L
F5.0
sL20L
F4.4
sL21L
F4.3
sL22L
F4.333333333333333
sL23L
F4.888888888888889
sL24L
F4.8
sL25L
F4.0
sL26L
F5.0
sL27L
F4.486486486486487
sL28L
F4.222222222222222
sL29L
F4.391304347826087
sL30L
F4.3
sL31L
F4.545454545454546
sL32L
F4.142857142857143
sL33L
F4.0
sL34L
F5.0
sL35L
F4.714285714285714
sL36L
F4.875
sL37L
F4.8
sL38L
F4.8
sL39L
F4.875
sL40L
F4.4
sL41L
F4.285714285714286
sL42L
F4.818181818181818
sL43L
F4.6923076923076925
sL44L
F4.8
sL45L
F4.166666666666667
sL46L
F4.21875
sL47L
F4.333333333333333
sL48L
F4.8
sL49L
F4.25
sL50L
F4.128205128205129
sL51L
F4.875
sL52L
F4.0
sL53L
F4.416666666666667
sL54L
F5.0
sL55L
F4.785714285714286
sL56L
F4.0
sL57L
F4.571428571428571
sL58L
F4.555555555555555
sL59L
F4.458333333333333
sL60L
F4.833333333333333
sL61L
F5.0
sL62L
F4.833333333333333
sL63L
F4.103896103896104
sL64L
F4.318181818181818
sL65L
F4.5
sL66L
F4.4
sL67L
F4.375
sL68L
F4.166666666666667
sL69L
F4.9
sL70L
F4.375
sL71L
F4.490196078431373
sL72L
F4.0
sL73L
F4.375
sL74L
F4.613636363636363
sL75L
F4.333333333333333
sL76L
F4.0
sL77L
F4.4
sL78L
F4.916666666666667
sL79L
F4.611111111111111
sL80L
F4.590361445783133
sL81L
F5.0
sL82L
F4.6
sL83L
F4.6
sL84L
F4.0
sL85L
F4.442622950819672
sL86L
F4.717391304347826
sL87L
F4.666666666666667
sL88L
F4.714285714285714
sL89L
F4.625
sL90L
F4.204545454545454
sL91L
F4.857142857142857
sL92L
F4.142857142857143
sL93L
F4.0
sL94L
F4.627906976744186
sL95L
F4.8
sL96L
F4.857142857142857
sL97L
F4.666666666666667
sL98L
F4.083333333333333
sL99L
F4.875
sL100L
F4.785714285714286
sL101L
F4.276595744680851
sL102L
F4.62962962962963
sL103L
F4.5
sL104L
F4.8
sL105L
F4.166666666666667
sL106L
F4.666666666666667
sL107L
F4.2
sL108L
F4.0
sL109L
F4.9
sL110L
F4.636363636363637
sL111L
F4.666666666666667
sL112L
F4.625
sL113L
F4.555555555555555
sL114L
F4.1875
sL115L
F4.6
sL116L
F4.425
sL117L
F4.363636363636363
sL118L
F5.0
sL119L
F5.0
sL120L
F5.0
sL121L
F4.5
sL122L
F5.0
sL123L
F4.285714285714286
sL124L
F4.2
sL125L
F4.684210526315789
sL126L
F4.5
sL127L
F4.571428571428571
sL128L
F4.461538461538462
sL129L
F4.216666666666667
sL130L
F4.642857142857143
sL131L
F4.5
sL132L
F4.428571428571429
sL133L
F4.8
sL134L
F4.564102564102564
sL135L
F4.666666666666667
sL136L
F4.0
sL137L
F4.6
sL138L
F4.0
sL139L
F4.928571428571429
sL140L
F4.75
sL141L
F4.0
sL142L
F5.0
sL143L
F4.522222222222222
sL144L
F4.333333333333333
sL145L
F4.142857142857143
sL146L
F4.714285714285714
sL147L
F4.555555555555555
sL148L
F4.756756756756757
sL149L
F4.214285714285714
sL150L
F4.368421052631579
sL151L
F5.0
sL152L
F5.0
sL153L
F5.0
sL154L
F4.5625
sL155L
F4.72
sL156L
F4.761904761904762
sL157L
F4.052631578947368
sL158L
F4.428571428571429
sL159L
F4.6
sL160L
F4.7611940298507465
sL161L
F4.625
sL162L
F4.35
sL163L
F4.8
sL164L
F4.6
sL165L
F4.5588235294117645
sL166L
F4.257142857142857
sL167L
F4.166666666666667
sL168L
F4.8
sL169L
F4.555555555555555
sL170L
F4.558139534883721
sL171L
F4.666666666666667
sL172L
F4.12962962962963
sL173L
F4.625
sL174L
F4.571428571428571
sL175L
F4.846153846153846
sL176L
F4.25
sL177L
F4.375
sL178L
F4.636363636363637
sL179L
F4.6
sL180L
F4.571428571428571
sL181L
F4.622047244094488
sL182L
F4.833333333333333
sL183L
F4.434782608695652
sL184L
F4.5
sL185L
F4.75
sL186L
F4.857142857142857
sL187L
F4.333333333333333
sL188L
F4.571428571428571
sL189L
F4.166666666666667
sL190L
F4.666666666666667
sL191L
F4.75
sL192L
F4.444444444444445
sL193L
F4.25
sL194L
F4.586206896551724
sL195L
F4.625
sL196L
F4.385542168674699
sL197L
F4.9
sL198L
F4.888888888888889
sL199L
F4.194805194805195
sL200L
F4.666666666666667
sL201L
F4.333333333333333
sL202L
F4.384615384615385
sL203L
F4.733333333333333
sL204L
F4.833333333333333
sL205L
F4.7368421052631575
sL206L
F4.4
sL207L
F5.0
sL208L
F4.833333333333333
sL209L
F4.6
sL210L
F4.133333333333334
sL211L
F4.409090909090909
sL212L
F4.565217391304348
sL213L
F5.0
sL214L
F4.0
sL215L
F4.6
sL216L
F4.0
sL217L
F5.0
sL218L
F4.614583333333333
sL219L
F4.142857142857143
sL220L
F4.4
sL221L
F4.833333333333333
sL222L
F4.545454545454546
sL223L
F4.333333333333333
sL224L
F4.575757575757576
sL225L
F4.777777777777778
sL226L
F4.407407407407407
sL227L
F5.0
sL228L
F4.285714285714286
sL229L
F4.833333333333333
sL230L
F4.311111111111111
sL231L
F5.0
sL232L
F4.666666666666667
sL233L
F4.875
sL234L
F4.15625
sL235L
F4.477611940298507
sL236L
F4.0
sL237L
F5.0
sL238L
F4.4
sL239L
F4.590909090909091
sL240L
F4.833333333333333
sL241L
F4.6016260162601625
sL242L
F4.551724137931035
sL243L
F4.4
sL244L
F4.5
sL245L
F4.52054794520548
sL246L
F4.8
sL247L
F4.081081081081081
sL248L
F4.2
sL249L
F4.5
sL250L
F5.0
sL251L
F4.055555555555555
sL252L
F4.444444444444445
sL253L
F4.8
sL254L
F4.473684210526316
sL255L
F4.875
sL256L
F4.6
sL257L
F4.185185185185185
sL258L
F4.777777777777778
sL259L
F4.833333333333333
sL260L
F4.589403973509934
sL261L
F4.8
sL262L
F4.728323699421965
sL263L
F4.48
sL264L
F4.666666666666667
sL265L
F4.25
sL266L
F4.166666666666667
sL267L
F4.6521739130434785
sL268L
F4.1020408163265305
sL269L
F4.2615384615384615
sL270L
F4.5
sL271L
F5.0
sL272L
F4.571428571428571
sL273L
F4.4
sL274L
F4.142857142857143
sL275L
F4.5
sL276L
F4.833333333333333
sL277L
F4.52
sL278L
F4.53125
sL279L
F4.666666666666667
sL280L
F4.9
sL281L
F4.840909090909091
sL282L
F4.709677419354839
sL283L
F4.709677419354839
sL284L
F4.096774193548387
sL285L
F4.375
sL286L
F4.555555555555555
sL287L
F4.146341463414634
sL288L
F4.523809523809524
sL289L
F4.2
sL290L
F4.6
sL291L
F4.375
sL292L
F4.0
sL293L
F4.75
sL294L
F4.7
sL295L
F4.2
sL296L
F4.0
sL297L
F5.0
sL298L
F4.571428571428571
sL299L
F4.0
sL300L
F4.0
sL301L
F4.359550561797753
sL302L
F4.444444444444445
sL303L
F4.298507462686567
sL304L
F4.5
sL305L
F4.722222222222222
sL306L
F5.0
sL307L
F4.0
sL308L
F4.75
sL309L
F4.875
sL310L
F4.59375
sL311L
F4.404761904761905
sL312L
F4.181818181818182
sL313L
F4.444444444444445
sL314L
F4.324324324324325
sL315L
F4.526315789473684
sL316L
F4.112903225806452
sL317L
F4.5
sL318L
F5.0
sL319L
F4.2
sL320L
F4.0
sL321L
F4.685714285714286
sL322L
F4.5
sL323L
F4.222222222222222
sL324L
F4.0
sL325L
F4.375
sL326L
F4.833333333333333
sL327L
F4.533333333333333
sL328L
F4.217391304347826
sL329L
F4.592592592592593
sL330L
F4.666666666666667
sL331L
F4.621212121212121
sL332L
F5.0
sL333L
F4.8
sL334L
F4.814814814814815
sL335L
F4.5
sL336L
F4.4
sL337L
F5.0
sL338L
F4.636363636363637
sL339L
F4.6
sL340L
F4.684931506849315
sL341L
F4.0
sL342L
F4.319148936170213
sL343L
F5.0
sL344L
F4.0
sL345L
F4.375
sL346L
F4.846153846153846
sL347L
F5.0
sL348L
F4.25
sL349L
F4.857142857142857
sL350L
F4.444444444444445
sL351L
F4.923076923076923
sL352L
F4.635514018691588
sL353L
F4.521739130434782
sL354L
F4.0
sL355L
F4.625
sL356L
F4.333333333333333
sL357L
F4.5
sL358L
F4.333333333333333
sL359L
F4.333333333333333
sL360L
F5.0
sL361L
F4.416666666666667
sL362L
F5.0
sL363L
F4.5
sL364L
F4.5
sL365L
F4.9
sL366L
F4.541666666666667
sL367L
F4.7272727272727275
sL368L
F4.444444444444445
sL369L
F4.9
sL370L
F4.25
sL371L
F4.075268817204301
sL372L
F4.8
sL373L
F4.068181818181818
sL374L
F4.5
sL375L
F4.555555555555555
sL376L
F4.8125
sL377L
F4.375
sL378L
F4.35
sL379L
F4.8
sL380L
F4.6
sL381L
F4.043478260869565
sL382L
F5.0
sL383L
F4.8
sL384L
F4.333333333333333
sL385L
F4.666666666666667
sL386L
F4.113636363636363
sL387L
F4.0
sL388L
F4.842105263157895
sL389L
F4.5625
sL390L
F4.0
sL391L
F4.571428571428571
sL392L
F4.333333333333333
sL393L
F4.366666666666666
sL394L
F4.2
sL395L
F4.25
sL396L
F4.6
sL397L
F4.15625
sL398L
F4.5
sL399L
F4.688888888888889
sL400L
F4.6
sL401L
F4.166666666666667
sL402L
F4.733333333333333
sL403L
F4.9
sL404L
F4.608695652173913
sL405L
F4.26530612244898
sL406L
F4.25
sL407L
F5.0
sL408L
F4.5
sL409L
F5.0
sL410L
F4.416666666666667
sL411L
F4.131147540983607
sL412L
F4.846153846153846
sL413L
F4.3076923076923075
sL414L
F4.157894736842105
sL415L
F4.2
sL416L
F4.5
sL417L
F4.7368421052631575
sL418L
F4.166666666666667
sL419L
F4.526315789473684
sL420L
F4.916666666666667
sL421L
F4.875
sL422L
F4.2
sL423L
F4.391304347826087
sL424L
F4.555555555555555
sL425L
F4.285714285714286
sL426L
F4.533333333333333
sL427L
F4.0
sL428L
F4.086956521739131
sL429L
F5.0
sL430L
F4.495412844036697
sL431L
F5.0
sL432L
F4.2
sL433L
F4.375
sL434L
F4.545454545454546
sL435L
F5.0
sL436L
F4.6395348837209305
sL437L
F4.833333333333333
sL438L
F4.53125
sL439L
F4.645161290322581
sL440L
F4.264705882352941
sL441L
F4.6
sL442L
F4.6875
sL443L
F4.8
sL444L
F4.371428571428571
sL445L
F4.2
sL446L
F4.8
sL447L
F4.8
sL448L
F4.6
sL449L
F4.8
sL450L
F4.6
sL451L
F4.260869565217392
sL452L
F4.291666666666667
sL453L
F4.2317073170731705
sL454L
F4.733333333333333
sL455L
F4.4
sL456L
F4.636363636363637
sL457L
F5.0
sL458L
F4.714285714285714
sL459L
F4.4
sL460L
F4.0
sL461L
F4.166666666666667
sL462L
F4.666666666666667
sL463L
F4.426229508196721
sL464L
F4.333333333333333
sL465L
F4.428571428571429
sL466L
F4.191489361702128
sL467L
F4.714285714285714
sL468L
F4.666666666666667
sL469L
F4.428571428571429
sL470L
F4.36
sL471L
F4.0
sL472L
F4.181818181818182
sL473L
F4.487804878048781
sL474L
F4.5
sL475L
F4.545454545454546
sL476L
F5.0
sL477L
F4.545454545454546
sL478L
F4.285714285714286
sL479L
F4.428571428571429
sL480L
F4.285714285714286
sL481L
F4.339622641509434
sL482L
F4.380952380952381
sL483L
F4.4
sL484L
F4.5
sL485L
F4.666666666666667
sL486L
F4.114285714285714
sL487L
F4.875
sL488L
F4.857142857142857
sL489L
F4.833333333333333
sL490L
F4.6
sL491L
F4.909090909090909
sL492L
F4.583333333333333
sL493L
F4.218649517684887
sL494L
F4.081081081081081
sL495L
F4.483870967741935
sL496L
F4.5
sL497L
F4.5
sL498L
F4.636363636363637
sL499L
F4.4
sL500L
F4.618421052631579
sL501L
F4.318181818181818
sL502L
F4.717391304347826
sL503L
F4.541666666666667
sL504L
F4.409090909090909
sL505L
F4.732673267326732
sL506L
F4.6
sL507L
F4.714285714285714
sL508L
F4.578947368421052
sL509L
F4.571428571428571
sL510L
F4.8
sL511L
F4.6875
sL512L
F4.333333333333333
sL513L
F4.6
sL514L
F4.705882352941177
sL515L
F4.5
sL516L
F4.4
sL517L
F4.833333333333333
sL518L
F4.575
sL519L
F4.451612903225806
sL520L
F4.470588235294118
sL521L
F5.0
sL522L
F4.75
sL523L
F4.428571428571429
sL524L
F4.203125
sL525L
F4.875
sL526L
F4.5
sL527L
F4.0
sL528L
F4.75
sL529L
F4.6875
sL530L
F4.5227272727272725
sL531L
F4.8
sL532L
F4.666666666666667
sL533L
F4.636363636363637
sL534L
F4.380952380952381
sL535L
F4.0
sL536L
F4.142857142857143
sL537L
F4.833333333333333
sL538L
F4.712121212121212
sL539L
F4.4
sL540L
F4.5625
sL541L
F4.5
sL542L
F4.534883720930233
sL543L
F4.6
sL544L
F4.2
sL545L
F4.142857142857143
sL546L
F4.6875
sL547L
F4.818181818181818
sL548L
F4.6
sL549L
F4.0
sL550L
F4.380952380952381
sL551L
F4.769230769230769
sL552L
F4.8
sL553L
F4.461538461538462
sL554L
F4.444444444444445
sL555L
F4.666666666666667
sL556L
F4.454545454545454
sL557L
F4.833333333333333
sL558L
F4.6
sL559L
F4.666666666666667
sL560L
F4.4
sL561L
F4.333333333333333
sL562L
F4.833333333333333
sL563L
F4.035714285714286
sL564L
F4.555555555555555
sL565L
F5.0
sL566L
F4.5
sL567L
F4.0
sL568L
F4.466666666666667
sL569L
F4.655172413793103
sL570L
F4.466666666666667
sL571L
F4.133333333333334
sL572L
F4.166666666666667
sL573L
F4.714285714285714
sL574L
F4.0
sL575L
F4.238095238095238
sL576L
F4.454545454545454
sL577L
F4.1
sL578L
F4.3023255813953485
sL579L
F4.4
sL580L
F4.439024390243903
sL581L
F4.6
sL582L
F4.571428571428571
sL583L
F4.608695652173913
sL584L
F4.5
sL585L
F4.5
sL586L
F4.42
sL587L
F5.0
sL588L
F4.0
sL589L
F4.0
sL590L
F4.625
sL591L
F5.0
sL592L
F4.0
sL593L
F4.344827586206897
sL594L
F4.285714285714286
sL595L
F4.9
sL596L
F4.5
sL597L
F4.090909090909091
sL598L
F4.432203389830509
sL599L
F4.8125
sL600L
F5.0
sL601L
F5.0
sL602L
F4.214285714285714
sL603L
F4.666666666666667
sL604L
F4.8
sL605L
F4.660714285714286
sL606L
F4.833333333333333
sL607L
F4.48
sL608L
F4.2727272727272725
sL609L
F4.2
sL610L
F5.0
sL611L
F4.8
sL612L
F4.285714285714286
sL613L
F4.166666666666667
sL614L
F4.454545454545454
sL615L
F4.5
sL616L
F4.428571428571429
sL617L
F4.666666666666667
sL618L
F4.5
sL619L
F4.142857142857143
sL620L
F4.875
sL621L
F4.125
sL622L
F4.125
sL623L
F4.714285714285714
sL624L
F4.375
sL625L
F5.0
sL626L
F4.833333333333333
sL627L
F4.444444444444445
sL628L
F4.555555555555555
sL629L
F5.0
sL630L
F4.0
sL631L
F4.777777777777778
sL632L
F4.2
sL633L
F4.714285714285714
sL634L
F4.625
sL635L
F4.4
sL636L
F4.5
sL637L
F4.5
sL638L
F4.428571428571429
sL639L
F4.363636363636363
sL640L
F4.5
sL641L
F4.75
sL642L
F4.6231884057971016
sL643L
F4.142857142857143
sL644L
F4.444444444444445
sL645L
F4.428571428571429
sL646L
F4.3108108108108105
sL647L
F4.375
sL648L
F4.571428571428571
sL649L
F4.571428571428571
sL650L
F4.158730158730159
sL651L
F5.0
sL652L
F4.116279069767442
sL653L
F4.48936170212766
sL654L
F5.0
sL655L
F4.4
sL656L
F4.909090909090909
sL657L
F4.590909090909091
sL658L
F4.75
sL659L
F4.428571428571429
sL660L
F4.111111111111111
sL661L
F4.555555555555555
sL662L
F4.629213483146067
sL663L
F4.285714285714286
sL664L
F4.8
sL665L
F4.333333333333333
sL666L
F4.466666666666667
sL667L
F4.5
sL668L
F4.857142857142857
sL669L
F4.785714285714286
sL670L
F4.0588235294117645
sL671L
F4.376712328767123
sL672L
F4.5
sL673L
F5.0
sL674L
F4.545454545454546
sL675L
F4.4
sL676L
F4.8
sL677L
F4.375
sL678L
F4.217391304347826
sL679L
F4.465116279069767
sL680L
F4.0
sL681L
F4.303030303030303
sL682L
F4.9375
sL683L
F4.62962962962963
sL684L
F4.092436974789916
sL685L
F4.538461538461538
sL686L
F4.090909090909091
sL687L
F4.4
sL688L
F4.243055555555555
sL689L
F4.4
sL690L
F4.5
sL691L
F4.611111111111111
sL692L
F4.571428571428571
sL693L
F4.6
sL694L
F4.541666666666667
sL695L
F5.0
sL696L
F4.75
sL697L
F4.9
sL698L
F4.615384615384615
sL699L
F4.461538461538462
sL700L
F4.7272727272727275
sL701L
F4.2
sL702L
F4.685714285714286
sL703L
F4.714285714285714
sL704L
F4.363636363636363
sL705L
F4.833333333333333
sL706L
F4.0
sL707L
F4.9375
sL708L
F4.375
sL709L
F4.575
sL710L
F5.0
sL711L
F4.773809523809524
sL712L
F4.483333333333333
sL713L
F4.428571428571429
sL714L
F4.5
sL715L
F4.857142857142857
sL716L
F4.172413793103448
sL717L
F4.714285714285714
sL718L
F4.5
sL719L
F4.625
sL720L
F4.5
sL721L
F4.4
sL722L
F4.473684210526316
sL723L
F4.285714285714286
sL724L
F4.636363636363637
sL725L
F4.833333333333333
sL726L
F4.8
sL727L
F4.875
sL728L
F4.6
sL729L
F4.333333333333333
sL730L
F4.25
sL731L
F4.0
sL732L
F4.454545454545454
sL733L
F4.666666666666667
sL734L
F4.5
sL735L
F4.313725490196078
sL736L
F4.846153846153846
sL737L
F4.285714285714286
sL738L
F4.545454545454546
sL739L
F4.428571428571429
sL740L
F4.56
sL741L
F5.0
sL742L
F4.0
sL743L
F4.666666666666667
sL744L
F4.4
sL745L
F4.6
sL746L
F4.285714285714286
sL747L
F4.571428571428571
sL748L
F4.166666666666667
sL749L
F4.0
sL750L
F4.220338983050848
sL751L
F4.5
sL752L
F4.666666666666667
sL753L
F4.375
sL754L
F4.571428571428571
sL755L
F4.0
sL756L
F4.132352941176471
sL757L
F4.428571428571429
sL758L
F4.2
sL759L
F4.461538461538462
sL760L
F4.5625
sL761L
F4.55
sL762L
F4.464285714285714
sL763L
F4.722222222222222
sL764L
F5.0
sL765L
F4.689655172413793
sL766L
F4.545454545454546
sL767L
F4.6875
sL768L
F4.25
sL769L
F4.625
sL770L
F4.733333333333333
sL771L
F4.411764705882353
sL772L
F4.7894736842105265
sL773L
F4.411764705882353
sL774L
F4.666666666666667
sL775L
F4.545454545454546
sL776L
F4.0
sL777L
F4.442622950819672
sL778L
F4.8
sL779L
F4.25
sL780L
F4.1
sL781L
F4.461538461538462
sL782L
F4.833333333333333
sL783L
F4.6371681415929205
sL784L
F4.5
sL785L
F4.65
sL786L
F4.2727272727272725
sL787L
F4.25
sL788L
F4.714285714285714
sL789L
F4.51063829787234
sL790L
F4.5
sL791L
F4.884057971014493
sL792L
F4.538461538461538
sL793L
F5.0
sL794L
F4.857142857142857
sL795L
F4.8
sL796L
F4.833333333333333
sL797L
F4.121495327102804
sL798L
F4.5
sL799L
F4.0
sL800L
F4.75
sL801L
F4.333333333333333
sL802L
F4.714285714285714
sL803L
F4.4
sL804L
F4.6
sL805L
F4.142857142857143
sL806L
F4.651162790697675
sL807L
F4.545454545454546
sL808L
F4.666666666666667
sL809L
F4.615384615384615
sL810L
F4.17
sL811L
F4.190476190476191
sL812L
F4.535714285714286
sL813L
F4.466666666666667
sL814L
F4.416666666666667
sL815L
F4.548387096774194
sL816L
F4.333333333333333
sL817L
F4.365853658536586
sL818L
F4.2
sL819L
F5.0
sL820L
F4.111111111111111
sL821L
F4.916666666666667
sL822L
F4.0
sL823L
F4.571428571428571
sL824L
F4.714285714285714
sL825L
F4.74468085106383
sL826L
F4.671232876712328
sL827L
F4.090909090909091
sL828L
F4.647058823529412
sL829L
F4.5
sL830L
F4.2
sL831L
F4.363636363636363
sL832L
F5.0
sL833L
F4.5
sL834L
F5.0
sL835L
F5.0
sL836L
F4.842105263157895
sL837L
F4.714285714285714
sL838L
F4.610810810810811
sL839L
F4.25
sL840L
F4.533333333333333
sL841L
F4.516666666666667
sL842L
F4.588235294117647
sL843L
F4.5
sL844L
F4.574074074074074
sL845L
F4.4
sL846L
F4.571428571428571
sL847L
F4.0
sL848L
F4.545454545454546
sL849L
F5.0
sL850L
F4.10377358490566
sL851L
F4.105263157894737
sL852L
F4.777777777777778
sL853L
F4.125
sL854L
F4.722222222222222
sL855L
F4.666666666666667
sL856L
F4.404761904761905
sL857L
F4.684210526315789
sL858L
F4.0
sL859L
F4.757142857142857
sL860L
F4.875
sL861L
F4.388888888888889
sL862L
F4.6875
sL863L
F4.6
sL864L
F5.0
sL865L
F4.545454545454546
sL866L
F4.63265306122449
sL867L
F4.412371134020619
sL868L
F4.6
sL869L
F4.333333333333333
sL870L
F5.0
sL871L
F4.6
sL872L
F4.333333333333333
sL873L
F4.621212121212121
sL874L
F4.571428571428571
sL875L
F4.333333333333333
sL876L
F4.333333333333333
sL877L
F4.833333333333333
sL878L
F4.714285714285714
sL879L
F4.923076923076923
sL880L
F4.666666666666667
sL881L
F4.5
sL882L
F4.666666666666667
sL883L
F4.53030303030303
sL884L
F4.4
sL885L
F4.111111111111111
sL886L
F4.822222222222222
sL887L
F5.0
sL888L
F4.230769230769231
sL889L
F4.625
sL890L
F4.524590163934426
sL891L
F4.583333333333333
sL892L
F4.4
sL893L
F4.523809523809524
sL894L
F4.5
sL895L
F4.375
sL896L
F4.428571428571429
sL897L
F4.766666666666667
sL898L
F4.338235294117647
sL899L
F4.0588235294117645
sL900L
F4.714285714285714
sL901L
F4.2
sL902L
F5.0
sL903L
F4.875
sL904L
F4.428571428571429
sL905L
F4.230769230769231
sL906L
F4.681818181818182
sL907L
F4.7
sL908L
F4.5625
sL909L
F4.222222222222222
sL910L
F4.27906976744186
sL911L
F5.0
sL912L
F4.2
sL913L
F4.5
sL914L
F4.461538461538462
sL915L
F5.0
sL916L
F4.714285714285714
sL917L
F4.181818181818182
sL918L
F5.0
sL919L
F4.6923076923076925
sL920L
F4.428571428571429
sL921L
F4.6
sL922L
F4.666666666666667
sL923L
F4.333333333333333
sL924L
F4.607843137254902
sL925L
F4.75
sL926L
F4.153846153846154
sL927L
F4.2
sL928L
F4.8
sL929L
F4.666666666666667
sL930L
F4.36
sL931L
F5.0
sL932L
F5.0
sL933L
F4.545454545454546
sL934L
F4.5
sL935L
F4.439024390243903
sL936L
F4.439024390243903
sL937L
F5.0
sL938L
F4.255813953488372
sL939L
F4.888888888888889
sL940L
F4.416666666666667
sL941L
F4.533039647577093
sL942L
F4.666666666666667
sL943L
F4.2
sL944L
F5.0
sL945L
F4.479166666666667
sL946L
F4.125
sL947L
F4.0
sL948L
F4.5
sL949L
F4.857142857142857
sL950L
F4.636363636363637
sL951L
F4.153846153846154
sL952L
F4.166666666666667
sL953L
F4.833333333333333
sL954L
F4.0
sL955L
F4.6
sL956L
F4.5
sL957L
F4.863636363636363
sL958L
F5.0
sL959L
F4.783783783783784
sL960L
F4.419354838709677
sL961L
F4.5
sL962L
F4.421052631578948
sL963L
F4.705882352941177
sL964L
F4.833333333333333
sL965L
F4.130434782608695
sL966L
F5.0
sL967L
F5.0
sL968L
F4.833333333333333
sL969L
F4.666666666666667
sL970L
F4.151515151515151
sL971L
F4.319148936170213
sL972L
F4.0
sL973L
F4.75
sL974L
F4.125
sL975L
F4.293103448275862
sL976L
F4.875
sL977L
F4.8
sL978L
F4.0989010989010985
sL979L
F4.596774193548387
sL980L
F4.558139534883721
sL981L
F5.0
sL982L
F4.6
sL983L
F4.571428571428571
sL984L
F4.0
sL985L
F4.636363636363637
sL986L
F4.571428571428571
sL987L
F4.0
sL988L
F4.2105263157894735
sL989L
F4.5
sL990L
F4.0
sL991L
F4.142857142857143
sL992L
F4.625
sL993L
F5.0
sL994L
F4.769230769230769
sL995L
F4.723404255319149
sL996L
F4.636363636363637
sL997L
F4.833333333333333
sL998L
F4.333333333333333
sL999L
F4.285714285714286
sL1000L
F4.451612903225806
sL1001L
F4.666666666666667
sL1002L
F4.333333333333333
sL1003L
F4.4
sL1004L
F4.444444444444445
sL1005L
F5.0
sL1006L
F4.4
sL1007L
F4.818181818181818
sL1008L
F4.016949152542373
sL1009L
F4.4
sL1010L
F4.5
sL1011L
F4.888888888888889
sL1012L
F4.375
sL1013L
F4.230769230769231
sL1014L
F4.6
sL1015L
F4.5
sL1016L
F4.428571428571429
sL1017L
F4.375
sL1018L
F4.166666666666667
sL1019L
F4.6
sL1020L
F4.6923076923076925
sL1021L
F4.180327868852459
sL1022L
F4.7727272727272725
sL1023L
F5.0
sL1024L
F4.333333333333333
sL1025L
F4.490909090909091
sL1026L
F5.0
sL1027L
F4.684210526315789
sL1028L
F4.481481481481482
sL1029L
F4.777777777777778
sL1030L
F4.857142857142857
sL1031L
F4.2592592592592595
sL1032L
F4.857142857142857
sL1033L
F4.5
sL1034L
F4.62
sL1035L
F5.0
sL1036L
F4.866666666666666
sL1037L
F4.7
sL1038L
F4.8125
sL1039L
F4.5
sL1040L
F4.4
sL1041L
F4.0
sL1042L
F4.857142857142857
sL1043L
F4.8
sL1044L
F4.6
sL1045L
F4.5
sL1046L
F4.285714285714286
sL1047L
F4.285714285714286
sL1048L
F4.25
sL1049L
F4.764705882352941
sL1050L
F4.48936170212766
sL1051L
F4.354166666666667
sL1052L
F4.0
sL1053L
F4.464285714285714
sL1054L
F4.470588235294118
sL1055L
F4.216216216216216
sL1056L
F4.458333333333333
sL1057L
F4.285714285714286
sL1058L
F4.115384615384615
sL1059L
F4.857142857142857
sL1060L
F4.0
sL1061L
F4.764705882352941
sL1062L
F4.512195121951219
sL1063L
F4.8
sL1064L
F4.458333333333333
sL1065L
F4.511627906976744
sL1066L
F4.782608695652174
sL1067L
F4.608695652173913
sL1068L
F4.25
sL1069L
F4.111111111111111
sL1070L
F4.333333333333333
sL1071L
F4.5
sL1072L
F4.614583333333333
sL1073L
F4.663157894736842
sL1074L
F4.625
sL1075L
F4.8
sL1076L
F4.794871794871795
sL1077L
F4.666666666666667
sL1078L
F4.2
sL1079L
F4.5
sL1080L
F4.55
sL1081L
F4.826086956521739
sL1082L
F4.0
sL1083L
F4.857142857142857
sL1084L
F4.037037037037037
sL1085L
F4.409090909090909
sL1086L
F4.888888888888889
sL1087L
F4.071428571428571
sL1088L
F4.684210526315789
sL1089L
F4.576086956521739
sL1090L
F5.0
sL1091L
F4.6
sL1092L
F4.0
sL1093L
F4.767441860465116
sL1094L
F4.1875
sL1095L
F4.333333333333333
sL1096L
F4.428571428571429
sL1097L
F4.428571428571429
sL1098L
F4.283783783783784
sL1099L
F4.045454545454546
sL1100L
F4.75
sL1101L
F4.2727272727272725
sL1102L
F4.2272727272727275
sL1103L
F4.428571428571429
sL1104L
F4.3
sL1105L
F4.228571428571429
sL1106L
F4.6
sL1107L
F4.0
sL1108L
F4.4
sL1109L
F4.5
sL1110L
F4.491228070175438
sL1111L
F4.353448275862069
sL1112L
F4.666666666666667
sL1113L
F5.0
sL1114L
F4.2105263157894735
sL1115L
F4.875
sL1116L
F4.666666666666667
sL1117L
F4.04
sL1118L
F4.382978723404255
sL1119L
F4.2
sL1120L
F4.315789473684211
sL1121L
F4.8
sL1122L
F5.0
sL1123L
F4.428571428571429
sL1124L
F4.36734693877551
sL1125L
F4.5
sL1126L
F5.0
sL1127L
F4.827586206896552
sL1128L
F4.6
sL1129L
F4.719298245614035
sL1130L
F4.565217391304348
sL1131L
F4.882352941176471
sL1132L
F4.0
sL1133L
F4.641791044776119
sL1134L
F4.338461538461538
sL1135L
F4.6
sL1136L
F4.222222222222222
sL1137L
F4.221238938053097
sL1138L
F4.574468085106383
sL1139L
F4.352941176470588
sL1140L
F4.0
sL1141L
F4.2
sL1142L
F4.5
sL1143L
F4.409090909090909
sL1144L
F4.809523809523809
sL1145L
F4.3604651162790695
sL1146L
F4.1
sL1147L
F4.375
sL1148L
F4.863636363636363
sL1149L
F4.095238095238095
sL1150L
F4.730769230769231
sL1151L
F4.615384615384615
sL1152L
F4.6
sL1153L
F4.303030303030303
sL1154L
F4.7272727272727275
sL1155L
F4.428571428571429
sL1156L
F4.8
sL1157L
F4.375
sL1158L
F4.25
sL1159L
F4.7894736842105265
sL1160L
F4.525252525252525
sL1161L
F4.642857142857143
sL1162L
F4.625
sL1163L
F5.0
sL1164L
F4.92
sL1165L
F4.333333333333333
sL1166L
F4.4
sL1167L
F4.571428571428571
sL1168L
F4.517241379310345
sL1169L
F4.571428571428571
sL1170L
F4.9375
sL1171L
F4.583333333333333
sL1172L
F4.333333333333333
sL1173L
F4.193548387096774
sL1174L
F4.470588235294118
sL1175L
F5.0
sL1176L
F4.833333333333333
sL1177L
F4.6
sL1178L
F4.6
sL1179L
F4.785714285714286
sL1180L
F4.28125
sL1181L
F4.666666666666667
sL1182L
F4.8
sL1183L
F4.333333333333333
sL1184L
F4.0
sL1185L
F4.764705882352941
sL1186L
F4.3076923076923075
sL1187L
F4.6
sL1188L
F4.590909090909091
sL1189L
F4.090909090909091
sL1190L
F4.8
sL1191L
F4.369230769230769
sL1192L
F4.685714285714286
sL1193L
F4.0
sL1194L
F4.166666666666667
sL1195L
F4.3478260869565215
sL1196L
F4.285714285714286
sL1197L
F4.428571428571429
sL1198L
F4.523809523809524
sL1199L
F4.0
sL1200L
F4.7272727272727275
sL1201L
F4.153846153846154
sL1202L
F4.5227272727272725
sL1203L
F4.84
sL1204L
F4.514285714285714
sL1205L
F4.529411764705882
sL1206L
F4.1
sL1207L
F4.8
sL1208L
F4.782608695652174
sL1209L
F4.5
sL1210L
F4.45
sL1211L
F4.2727272727272725
sL1212L
F4.549019607843137
sL1213L
F4.6
sL1214L
F5.0
sL1215L
F4.32
sL1216L
F4.391304347826087
sL1217L
F4.619047619047619
sL1218L
F4.777777777777778
sL1219L
F4.444444444444445
sL1220L
F4.540983606557377
sL1221L
F4.2
sL1222L
F4.8
sL1223L
F4.017543859649122
sL1224L
F4.65
sL1225L
F4.6
sL1226L
F4.909090909090909
sL1227L
F4.777777777777778
sL1228L
F4.607142857142857
sL1229L
F4.8
sL1230L
F4.267857142857143
sL1231L
F4.3522727272727275
sL1232L
F4.705882352941177
sL1233L
F4.526881720430108
sL1234L
F4.4
sL1235L
F5.0
sL1236L
F4.846153846153846
sL1237L
F4.071428571428571
sL1238L
F4.368421052631579
sL1239L
F4.180327868852459
sL1240L
F4.181818181818182
sL1241L
F4.142857142857143
sL1242L
F4.375
sL1243L
F4.833333333333333
sL1244L
F4.333333333333333
sL1245L
F4.1
sL1246L
F4.343283582089552
sL1247L
F4.0
sL1248L
F5.0
sL1249L
F4.545454545454546
sL1250L
F4.428571428571429
sL1251L
F4.136363636363637
sL1252L
F4.285714285714286
sL1253L
F4.3061224489795915
sL1254L
F4.0
sL1255L
F4.611111111111111
sL1256L
F4.4
sL1257L
F4.894736842105263
sL1258L
F4.466666666666667
sL1259L
F4.0
sL1260L
F4.636363636363637
sL1261L
F4.777777777777778
sL1262L
F4.888888888888889
sL1263L
F4.857142857142857
sL1264L
F4.4
sL1265L
F4.125
sL1266L
F4.318181818181818
sL1267L
F4.0625
sL1268L
F4.5
sL1269L
F4.0
sL1270L
F4.75
sL1271L
F4.783132530120482
sL1272L
F4.0588235294117645
sL1273L
F4.08
sL1274L
F4.5
sL1275L
F4.3478260869565215
sL1276L
F4.8
sL1277L
F4.625
sL1278L
F4.0
sL1279L
F4.428571428571429
sL1280L
F4.090909090909091
sL1281L
F4.75
sL1282L
F4.52
sL1283L
F4.235294117647059
sL1284L
F4.533333333333333
sL1285L
F4.8
sL1286L
F4.181818181818182
sL1287L
F4.4
sL1288L
F4.0
sL1289L
F4.0
sL1290L
F4.444444444444445
sL1291L
F4.25
sL1292L
F4.25
sL1293L
F4.1
sL1294L
F4.769230769230769
sL1295L
F4.6
sL1296L
F4.363636363636363
sL1297L
F4.6
sL1298L
F4.846153846153846
sL1299L
F4.4
sL1300L
F4.4
sL1301L
F4.125
sL1302L
F4.833333333333333
sL1303L
F4.5
sL1304L
F4.0
sL1305L
F4.8
sL1306L
F4.8
sL1307L
F5.0
sL1308L
F4.379310344827586
sL1309L
F4.285714285714286
sL1310L
F4.882352941176471
sL1311L
F4.0625
sL1312L
F4.333333333333333
sL1313L
F4.333333333333333
sL1314L
F4.647058823529412
sL1315L
F4.636363636363637
sL1316L
F4.5
sL1317L
F4.0
sL1318L
F4.833333333333333
sL1319L
F5.0
sL1320L
F4.5
sL1321L
F4.760869565217392
sL1322L
F4.523809523809524
sL1323L
F4.0
sL1324L
F5.0
sL1325L
F4.337662337662338
sL1326L
F4.6
sL1327L
F4.6
sL1328L
F4.0
sL1329L
F5.0
sL1330L
F4.4
sL1331L
F4.2
sL1332L
F4.266666666666667
sL1333L
F4.5
sL1334L
F4.2
sL1335L
F5.0
sL1336L
F4.333333333333333
sL1337L
F4.724137931034483
sL1338L
F4.537190082644628
sL1339L
F4.666666666666667
sL1340L
F4.833333333333333
sL1341L
F4.625
sL1342L
F4.592592592592593
sL1343L
F4.875
sL1344L
F4.625
sL1345L
F4.428571428571429
sL1346L
F4.4
sL1347L
F4.5
sL1348L
F4.588235294117647
sL1349L
F4.333333333333333
sL1350L
F4.590909090909091
sL1351L
F4.538461538461538
sL1352L
F4.222222222222222
sL1353L
F5.0
sL1354L
F4.75
sL1355L
F4.461538461538462
sL1356L
F4.0
sL1357L
F4.0
sL1358L
F4.5
sL1359L
F4.285714285714286
sL1360L
F4.391025641025641
sL1361L
F4.018518518518518
sL1362L
F4.333333333333333
sL1363L
F4.545454545454546
sL1364L
F4.5
sL1365L
F4.888888888888889
sL1366L
F4.8
sL1367L
F4.777777777777778
sL1368L
F4.8
sL1369L
F4.608695652173913
sL1370L
F4.666666666666667
sL1371L
F4.0
sL1372L
F4.0
sL1373L
F4.7368421052631575
sL1374L
F4.695652173913044
sL1375L
F4.2485549132947975
sL1376L
F4.714285714285714
sL1377L
F4.6521739130434785
sL1378L
F4.666666666666667
sL1379L
F5.0
sL1380L
F4.375
sL1381L
F4.148148148148148
sL1382L
F4.590909090909091
sL1383L
F4.5
sL1384L
F4.2
sL1385L
F4.269230769230769
sL1386L
F4.642857142857143
sL1387L
F4.0
sL1388L
F4.888888888888889
sL1389L
F4.156626506024097
sL1390L
F4.333333333333333
sL1391L
F4.7
sL1392L
F4.4
sL1393L
F5.0
sL1394L
F4.448275862068965
sL1395L
F4.9
sL1396L
F4.571428571428571
sL1397L
F4.594202898550725
sL1398L
F4.8076923076923075
sL1399L
F4.0
sL1400L
F4.333333333333333
sL1401L
F4.636363636363637
sL1402L
F5.0
sL1403L
F4.4520547945205475
sL1404L
F4.25
sL1405L
F4.833333333333333
sL1406L
F4.8
sL1407L
F4.689655172413793
sL1408L
F4.517857142857143
sL1409L
F4.125
sL1410L
F4.6
sL1411L
F4.6
sL1412L
F4.6
sL1413L
F4.560975609756097
sL1414L
F4.6
sL1415L
F4.574468085106383
sL1416L
F4.8
sL1417L
F4.833333333333333
sL1418L
F4.785714285714286
sL1419L
F5.0
sL1420L
F4.615384615384615
sL1421L
F4.285714285714286
sL1422L
F5.0
sL1423L
F4.833333333333333
sL1424L
F4.1
sL1425L
F4.555555555555555
sL1426L
F4.595238095238095
sL1427L
F4.2
sL1428L
F4.6
sL1429L
F4.535714285714286
sL1430L
F4.333333333333333
sL1431L
F4.875
sL1432L
F4.833333333333333
sL1433L
F4.285714285714286
sL1434L
F4.6
sL1435L
F4.2
sL1436L
F4.717391304347826
sL1437L
F4.9
sL1438L
F4.25
sL1439L
F4.2835820895522385
sL1440L
F4.35
sL1441L
F4.5
sL1442L
F4.2
sL1443L
F4.0
sL1444L
F4.722222222222222
sL1445L
F4.5
sL1446L
F4.214285714285714
sL1447L
F4.428571428571429
sL1448L
F4.125
sL1449L
F4.6
sL1450L
F4.875
sL1451L
F4.5
sL1452L
F4.3478260869565215
sL1453L
F4.8
sL1454L
F4.25
sL1455L
F4.428571428571429
sL1456L
F4.5
sL1457L
F4.2
sL1458L
F4.571428571428571
sL1459L
F4.4
sL1460L
F4.875
sL1461L
F4.8
sL1462L
F5.0
sL1463L
F4.2727272727272725
sL1464L
F4.142857142857143
sL1465L
F4.24
sL1466L
F4.714285714285714
sL1467L
F4.0
sL1468L
F4.4
sL1469L
F4.833333333333333
sL1470L
F4.75
sL1471L
F4.875
sL1472L
F4.4
sL1473L
F4.5
sL1474L
F4.0
sL1475L
F4.607142857142857
sL1476L
F4.857142857142857
sL1477L
F4.833333333333333
sL1478L
F4.734177215189874
sL1479L
F4.666666666666667
sL1480L
F4.8
sL1481L
F4.5
sL1482L
F4.2
sL1483L
F4.714285714285714
sL1484L
F4.4
sL1485L
F4.1
sL1486L
F4.15
sL1487L
F4.3
sL1488L
F4.6
sL1489L
F4.8
sL1490L
F4.571428571428571
sL1491L
F4.538461538461538
sL1492L
F4.444444444444445
sL1493L
F4.833333333333333
sL1494L
F4.7272727272727275
sL1495L
F5.0
sL1496L
F4.428571428571429
sL1497L
F4.0
sL1498L
F4.333333333333333
sL1499L
F4.142857142857143
sL1500L
F4.6
sL1501L
F4.508333333333334
sL1502L
F4.238095238095238
sL1503L
F5.0
sL1504L
F4.833333333333333
sL1505L
F4.666666666666667
sL1506L
F4.333333333333333
sL1507L
F4.6
sL1508L
F4.5
sL1509L
F4.875
sL1510L
F4.2631578947368425
sL1511L
F5.0
sL1512L
F4.791666666666667
sL1513L
F4.75
sL1514L
F4.8
sL1515L
F4.666666666666667
sL1516L
F4.6
sL1517L
F4.102564102564102
sL1518L
F4.404761904761905
sL1519L
F4.75
sL1520L
F4.7368421052631575
sL1521L
F4.295774647887324
sL1522L
F4.4
sL1523L
F5.0
sL1524L
F4.916666666666667
sL1525L
F4.0
sL1526L
F4.5
sL1527L
F4.888888888888889
sL1528L
F4.166666666666667
sL1529L
F4.857142857142857
sL1530L
F4.55
sL1531L
F4.455555555555556
sL1532L
F4.444444444444445
sL1533L
F4.818181818181818
sL1534L
F4.571428571428571
sL1535L
F4.285714285714286
sL1536L
F4.4186046511627906
sL1537L
F4.166666666666667
sL1538L
F4.714285714285714
sL1539L
F4.3125
sL1540L
F4.722222222222222
sL1541L
F4.2727272727272725
sL1542L
F4.0
sL1543L
F4.2727272727272725
sL1544L
F4.228070175438597
sL1545L
F4.416666666666667
sL1546L
F4.75
sL1547L
F4.368421052631579
sL1548L
F4.571428571428571
sL1549L
F4.4
sL1550L
F5.0
sL1551L
F4.4
sL1552L
F4.384615384615385
sL1553L
F4.125
sL1554L
F4.222222222222222
sL1555L
F4.676470588235294
sL1556L
F4.266666666666667
sL1557L
F4.6521739130434785
sL1558L
F4.9
sL1559L
F4.6
sL1560L
F4.2
sL1561L
F4.791666666666667
sL1562L
F4.625
sL1563L
F4.181818181818182
sL1564L
F4.158730158730159
sL1565L
F4.340909090909091
sL1566L
F4.546666666666667
sL1567L
F4.0
sL1568L
F4.35064935064935
sL1569L
F5.0
sL1570L
F4.7272727272727275
sL1571L
F4.0
sL1572L
F4.0625
sL1573L
F4.555555555555555
sL1574L
F4.916666666666667
sL1575L
F4.444444444444445
sL1576L
F4.6
sL1577L
F4.5
sL1578L
F4.327272727272727
sL1579L
F4.166666666666667
sL1580L
F4.169014084507042
sL1581L
F4.5
sL1582L
F4.631578947368421
sL1583L
F4.25
sL1584L
F4.333333333333333
sL1585L
F4.142857142857143
sL1586L
F4.0
sL1587L
F4.6521739130434785
sL1588L
F4.5
sL1589L
F4.2
sL1590L
F4.384615384615385
sL1591L
F4.470588235294118
sL1592L
F4.6
sL1593L
F4.739130434782608
sL1594L
F4.25
sL1595L
F4.714285714285714
sL1596L
F5.0
sL1597L
F4.392156862745098
sL1598L
F4.166666666666667
sL1599L
F5.0
sL1600L
F4.636363636363637
sL1601L
F4.296296296296297
sL1602L
F4.8
sL1603L
F4.733333333333333
sL1604L
F4.395833333333333
sL1605L
F4.4375
sL1606L
F4.641025641025641
sL1607L
F4.361702127659575
sL1608L
F4.733333333333333
sL1609L
F4.624390243902439
sL1610L
F4.4
sL1611L
F4.85
sL1612L
F4.285714285714286
sL1613L
F4.875
sL1614L
F4.8
sL1615L
F4.53932584269663
sL1616L
F4.571428571428571
sL1617L
F4.6
sL1618L
F4.75
sL1619L
F4.681818181818182
sL1620L
F4.4
sL1621L
F4.8
sL1622L
F4.529411764705882
sL1623L
F4.333333333333333
sL1624L
F4.285714285714286
sL1625L
F4.0
sL1626L
F4.8
sL1627L
F4.352941176470588
sL1628L
F5.0
sL1629L
F4.408163265306122
sL1630L
F4.0
sL1631L
F4.428571428571429
sL1632L
F4.301587301587301
sL1633L
F4.421052631578948
sL1634L
F4.8
sL1635L
F4.285714285714286
sL1636L
F4.235294117647059
sL1637L
F4.896551724137931
sL1638L
F4.361111111111111
sL1639L
F4.071428571428571
sL1640L
F4.96
sL1641L
F5.0
sL1642L
F4.214285714285714
sL1643L
F4.75
sL1644L
F4.1568627450980395
sL1645L
F4.222222222222222
sL1646L
F4.551724137931035
sL1647L
F4.4
sL1648L
F4.166666666666667
sL1649L
F4.482758620689655
sL1650L
F4.888888888888889
sL1651L
F4.0
sL1652L
F4.166666666666667
sL1653L
F4.166666666666667
sL1654L
F4.8076923076923075
sL1655L
F4.7272727272727275
sL1656L
F4.642857142857143
sL1657L
F4.666666666666667
sL1658L
F4.333333333333333
sL1659L
F4.166666666666667
sL1660L
F4.567796610169491
sL1661L
F4.285714285714286
sL1662L
F4.3
sL1663L
F5.0
sL1664L
F5.0
sL1665L
F4.511111111111111
sL1666L
F4.7
sL1667L
F4.375
sL1668L
F4.785714285714286
sL1669L
F4.714285714285714
sL1670L
F4.0
sL1671L
F4.505050505050505
sL1672L
F4.833333333333333
sL1673L
F4.6
sL1674L
F4.75
sL1675L
F4.6
sL1676L
F4.718954248366013
sL1677L
F4.138461538461539
sL1678L
F4.431818181818182
sL1679L
F4.222222222222222
sL1680L
F4.425531914893617
sL1681L
F4.166666666666667
sL1682L
F4.8
sL1683L
F4.465116279069767
sL1684L
F4.555555555555555
sL1685L
F4.086956521739131
sL1686L
F4.9
sL1687L
F4.648148148148148
sL1688L
F4.888888888888889
sL1689L
F5.0
sL1690L
F4.875
sL1691L
F4.090909090909091
sL1692L
F4.372093023255814
sL1693L
F4.742857142857143
sL1694L
F4.586206896551724
sL1695L
F4.555555555555555
sL1696L
F4.75
sL1697L
F4.8
sL1698L
F4.239130434782608
sL1699L
F4.5
sL1700L
F4.0
sL1701L
F4.4
sL1702L
F4.666666666666667
sL1703L
F4.6
sL1704L
F4.25
sL1705L
F4.644628099173554
sL1706L
F4.0
sL1707L
F4.5
sL1708L
F4.545454545454546
sL1709L
F4.090909090909091
sL1710L
F4.253164556962025
sL1711L
F4.5
sL1712L
F4.882352941176471
sL1713L
F4.083333333333333
sL1714L
F4.25
sL1715L
F5.0
sL1716L
F5.0
sL1717L
F4.125
sL1718L
F4.405063291139241
sL1719L
F4.511627906976744
sL1720L
F4.75
sL1721L
F4.525
sL1722L
F5.0
sL1723L
F4.875
sL1724L
F4.75
sL1725L
F5.0
sL1726L
F4.6
sL1727L
F4.263803680981595
sL1728L
F4.458333333333333
sL1729L
F4.366197183098592
sL1730L
F4.0
sL1731L
F5.0
sL1732L
F4.555555555555555
sL1733L
F4.285714285714286
sL1734L
F4.105263157894737
sL1735L
F4.888888888888889
sL1736L
F4.75
sL1737L
F4.666666666666667
sL1738L
F4.5
sL1739L
F4.461538461538462
sL1740L
F4.333333333333333
sL1741L
F4.8
sL1742L
F4.5
sL1743L
F4.5
sL1744L
F4.230769230769231
sL1745L
F4.283333333333333
sL1746L
F5.0
sL1747L
F4.933333333333334
sL1748L
F4.857142857142857
sL1749L
F4.217391304347826
sL1750L
F4.6571428571428575
sL1751L
F4.724137931034483
sL1752L
F4.5476190476190474
sL1753L
F4.6
sL1754L
F4.5
sL1755L
F4.833333333333333
sL1756L
F4.130434782608695
sL1757L
F5.0
sL1758L
F4.0
sL1759L
F4.526315789473684
sL1760L
F4.8
sL1761L
F4.4
sL1762L
F4.590163934426229
sL1763L
F4.461538461538462
sL1764L
F4.285714285714286
sL1765L
F4.125
sL1766L
F4.666666666666667
sL1767L
F4.833333333333333
sL1768L
F4.339622641509434
sL1769L
F4.8
sL1770L
F4.746031746031746
sL1771L
F4.2
sL1772L
F4.176470588235294
sL1773L
F5.0
sL1774L
F4.909090909090909
sL1775L
F4.842105263157895
sL1776L
F4.0
sL1777L
F4.283333333333333
sL1778L
F4.545454545454546
sL1779L
F4.529411764705882
sL1780L
F4.1
sL1781L
F4.2
sL1782L
F4.4
sL1783L
F4.4
sL1784L
F4.5
sL1785L
F5.0
sL1786L
F4.45
sL1787L
F4.5
sL1788L
F4.375
sL1789L
F4.8
sL1790L
F4.2
sL1791L
F4.4
sL1792L
F4.642857142857143
sL1793L
F4.181818181818182
sL1794L
F4.333333333333333
sL1795L
F4.571428571428571
sL1796L
F4.666666666666667
sL1797L
F4.5
sL1798L
F4.647058823529412
sL1799L
F4.25
sL1800L
F4.8
sL1801L
F4.0
sL1802L
F4.916666666666667
sL1803L
F4.05
sL1804L
F4.679245283018868
sL1805L
F4.4
sL1806L
F4.285714285714286
sL1807L
F4.363636363636363
sL1808L
F4.0
sL1809L
F4.0
sL1810L
F4.571428571428571
sL1811L
F4.725
sL1812L
F4.8
sL1813L
F4.6923076923076925
sL1814L
F4.767441860465116
sL1815L
F4.5
sL1816L
F4.6
sL1817L
F4.543478260869565
sL1818L
F4.388888888888889
sL1819L
F4.857142857142857
sL1820L
F4.714285714285714
sL1821L
F5.0
sL1822L
F4.7
sL1823L
F4.086956521739131
sL1824L
F4.111111111111111
sL1825L
F4.225274725274725
sL1826L
F4.6
sL1827L
F4.0
sL1828L
F4.625
sL1829L
F4.714285714285714
sL1830L
F4.6
sL1831L
F4.463768115942029
sL1832L
F4.8
sL1833L
F5.0
sL1834L
F5.0
sL1835L
F4.735294117647059
sL1836L
F4.5
sL1837L
F4.82258064516129
sL1838L
F5.0
sL1839L
F4.833333333333333
sL1840L
F4.36144578313253
sL1841L
F4.175
sL1842L
F4.4
sL1843L
F4.724137931034483
sL1844L
F4.5
sL1845L
F4.5
sL1846L
F4.3
sL1847L
F4.357142857142857
sL1848L
F4.571428571428571
sL1849L
F4.140845070422535
sL1850L
F4.076923076923077
sL1851L
F4.833333333333333
sL1852L
F5.0
sL1853L
F4.5
sL1854L
F4.461538461538462
sL1855L
F4.0
sL1856L
F4.866666666666666
sL1857L
F4.714285714285714
sL1858L
F4.0
sL1859L
F4.166666666666667
sL1860L
F4.473684210526316
sL1861L
F4.416666666666667
sL1862L
F5.0
sL1863L
F4.0
sL1864L
F4.333333333333333
sL1865L
F4.3125
sL1866L
F4.3
sL1867L
F4.4
sL1868L
F4.333333333333333
sL1869L
F4.5
sL1870L
F4.105263157894737
sL1871L
F4.222222222222222
sL1872L
F4.428571428571429
sL1873L
F4.125
sL1874L
F4.333333333333333
sL1875L
F4.2444444444444445
sL1876L
F4.0964912280701755
sL1877L
F4.619047619047619
sL1878L
F4.846153846153846
sL1879L
F4.0
sL1880L
F4.6
sL1881L
F4.833333333333333
sL1882L
F4.714285714285714
sL1883L
F4.8
sL1884L
F4.666666666666667
sL1885L
F4.695652173913044
sL1886L
F4.372549019607843
sL1887L
F5.0
sL1888L
F4.8
sL1889L
F4.714285714285714
sL1890L
F4.6461538461538465
sL1891L
F4.166666666666667
sL1892L
F4.888888888888889
sL1893L
F5.0
sL1894L
F4.640625
sL1895L
F4.5
sL1896L
F4.6
sL1897L
F4.571428571428571
sL1898L
F4.388888888888889
sL1899L
F4.0
sL1900L
F4.714285714285714
sL1901L
F4.5
sL1902L
F4.8
sL1903L
F4.5
sL1904L
F4.666666666666667
sL1905L
F4.21875
sL1906L
F4.666666666666667
sL1907L
F4.5
sL1908L
F4.824324324324325
sL1909L
F4.285714285714286
sL1910L
F4.529411764705882
sL1911L
F4.0
sL1912L
F4.857142857142857
sL1913L
F4.295454545454546
sL1914L
F4.083333333333333
sL1915L
F4.380952380952381
sL1916L
F4.4375
sL1917L
F4.774193548387097
sL1918L
F4.8
sL1919L
F4.25
sL1920L
F4.2560975609756095
sL1921L
F4.648148148148148
sL1922L
F4.4
sL1923L
F4.3125
sL1924L
F4.5
sL1925L
F4.5
sL1926L
F4.0
sL1927L
F4.555555555555555
sL1928L
F4.042857142857143
sL1929L
F4.896551724137931
sL1930L
F4.6
sL1931L
F4.166666666666667
sL1932L
F4.368421052631579
sL1933L
F4.308641975308642
sL1934L
F4.614285714285714
sL1935L
F4.1
sL1936L
F4.0
sL1937L
F4.5038167938931295
sL1938L
F4.454545454545454
sL1939L
F4.888888888888889
sL1940L
F4.3538461538461535
sL1941L
F4.222222222222222
sL1942L
F4.454545454545454
sL1943L
F4.357142857142857
sL1944L
F4.8
sL1945L
F4.166666666666667
sL1946L
F5.0
sL1947L
F4.285714285714286
sL1948L
F4.225
sL1949L
F5.0
sL1950L
F4.5
sL1951L
F4.696969696969697
sL1952L
F4.2
sL1953L
F4.4
sL1954L
F4.490909090909091
sL1955L
F4.560975609756097
sL1956L
F4.264705882352941
sL1957L
F4.666666666666667
sL1958L
F4.571428571428571
sL1959L
F4.795454545454546
sL1960L
F4.083333333333333
sL1961L
F4.8076923076923075
sL1962L
F4.8
sL1963L
F4.416666666666667
sL1964L
F4.4
sL1965L
F4.3076923076923075
sL1966L
F4.470588235294118
sL1967L
F4.714285714285714
sL1968L
F4.0625
sL1969L
F5.0
sL1970L
F4.481481481481482
sL1971L
F4.5
sL1972L
F4.428571428571429
sL1973L
F4.466666666666667
sL1974L
F4.0
sL1975L
F5.0
sL1976L
F4.642857142857143
s.