(dp0
L0L
V3M Dual-Swivel Monitor Arm (MA140MB)
p1
sL1L
VNemosine Singularity Fine German Nib Fountain Pen, Demonstrator (NEM-SIN-01-F)
p2
sL2L
VUltraShip 55 lb. Digital Postal Shipping &amp; Kitchen Scale
p3
sL3L
VAvery Easy Peel Address Labels for Inkjet Printers, 1 x 2.625 Inches, Clear, Pack of 750 (08660)
p4
sL4L
VFellowes I-Spire Series Monitor Lift (9311101)
p5
sL5L
VScotch Duct Tape, Black, 1.88-Inch by 60-Yard
p6
sL6L
VDuck Brand HD Packaging Tape, 1.88 inch x 55 Yard, Crystal Clear, 2 Rolls with Dispenser (07290)
p7
sL7L
VLexmark MX310dn Mono Laser MFP
p8
sL8L
VSwingline Standard Stapler Value Pack, Includes Stapler, 5000 Count Staples and Staple Remover, Black (S70754551H)
p9
sL9L
VSmead Organized UP Heavyweight File Folders, Dual Tabs, Letter Size, Assorted Colors, 6 per Pack (75405)
p10
sL10L
VWilson Jones Heavy Weight Top-Loading Sheet Protectors, Non-Glare, 100/Box (W21413)
p11
sL11L
VDuck EZ Start Carton Sealing Tape, 1.88 Inches x 60 Yards, 3-Inch Core, Clear (CS-60C)
p12
sL12L
VFive Star 7-Pocket Customizable Expanding File, 13.75 x 10.75 Inches, Red (72705)
p13
sL13L
VExpo Low Odor Bullet Tip Dry Erase Markers, 12 Black Markers (82001)
p14
sL14L
VEpson WorkForce Pro WF-4640 Wireless and WiFi Direct, All-in-One Color Inkjet Printer, Copier, Scanner, 2-Sided Auto Duplex, ADF, Fax. Prints from Tablet/Smartphone. AirPrint Compatible. (C11CD11201)
p15
sL15L
VKodak P811 8x10 Personal Photo and Negative Scanner
p16
sL16L
VSakura Gelly Roll Pens - Set of 10 Metallic Colors, Gelly Roll Pen
p17
sL17L
V36 Stainless Steel Collar Stays in Clear Plastic Box, Order the Sizes You Need
p18
sL18L
VLucky Line 81101 Key Ring
p19
sL19L
VSharpie Fine Point Permanent Markers, 12 Colored Markers(30072)
p20
sL20L
VFellowes Cosmic 9.5 Inch Laminator (5206801)
p21
sL21L
VFellowes Wire Study Stand-Silver (10024)
p22
sL22L
VCanon Pixma MX882 Wireless Office All-in-One Inkjet Printer (4894B002)
p23
sL23L
VSharpie Metallic 4 PACK
p24
sL24L
VNorthwestern Bell Big-Button Corded Phone Plus with 13-Number Memory (20200-1)
p25
sL25L
VBIC ECOlutions Round Stic Ball Pen, Medium Point (1.0mm), Blue, 12 Pens
p26
sL26L
VSharpie Permanent Marker Fine Tip 8 Pack
p27
sL27L
VAvery Comfort Touch Durable View Binder with 1-Inch Slant Ring, Holds 8.5 x 11-Inch Paper, White with Black Spine, 1 Binder (17406)
p28
sL28L
VPanasonic KX-TGA651B  Extra Handset for KX-TG65XX Series Cordless Phones, Black
p29
sL29L
VAvery Internet Shipping Labels, Ink Jet and Laser, Brown Kraft, 50 Labels (5783)
p30
sL30L
V7-Piece Original Dry Erase Organizer Kit
p31
sL31L
VTombow Mono Hybrid-Style Correction Tape Pen, Non-Refillable, 0.16 x 394 Inches, 3 Pens per Pack (68707)
p32
sL32L
VHP 96/97 Ink Cartridge in Retail Packagings- Combo Pack
p33
sL33L
VPanasonic KX-TS105W Corded Phone, White
p34
sL34L
VSharpie Fine Point Permanent Markers, 5 Colored Markers(30653PP)
p35
sL35L
VAccuteck Heavy Duty Postal Shipping Scale with Extra Large Display, Batteries and AC Adapter (A-ST85C)
p36
sL36L
VScotch Magic Tape Deal, 3/4 x 1000 Inches, 6-Pack with C-40 Black Dispenser (810C40BK)
p37
sL37L
VHP 23 Tri-Color Inkjet Print Ink Cartridge in Retail Packaging
p38
sL38L
VLamy Cartridges Refill - Blue/Black -5-pack (T10BB)
p39
sL39L
VLamy Vista Fountain Pen Demonstrator, Clear Medium Nib (L12M)
p40
sL40L
VBrother MFC-8480DN High-Performance Laser All-in-One with Networking and Duplex Printing
p41
sL41L
VPentel Sharp Automatic Pencil, 0.5mm, Black Barrels, 2 Pack (P205BP2-K6)
p42
sL42L
VTriplus Fineliner Pen
p43
sL43L
V100 12x15.5 WHITE POLY MAILERS ENVELOPES BAGS 12 x 15.5
p44
sL44L
V3M General Purpose Masking Tape 203 Beige, 24 mm x 55 m (Pack of 1)
p45
sL45L
VBrother P-touch Electronic Labeling System, Royal Blue (PT80SCCP)
p46
sL46L
VPilot Dr. Grip 4+1 Multifunction Ballpoint Pen + Pencil, Assorted Color Inks, Blue Barrel, 1-Pack (36221)
p47
sL47L
VMemorex CD Labels Refills (120-Pack, White)
p48
sL48L
VHP 74/75 Ink Cartridge in Retail Packaging, Combo Pack
p49
sL49L
VPilot Namiki IC100 Fountain Pen Ink Cartridge, Black, 12 Cartridges per Pack (69100)
p50
sL50L
VWilson Jones Heavy Duty D-Ring View Binder with Extra Durable Hinge, 1-Inch, White (W385-14WPP1)
p51
sL51L
VPanasonic KX-TG6445T DECT 6.0 Cordless Phone with Answering System, Metallic Black, 5 Handsets
p52
sL52L
VEpson WorkForce 610 Wireless Color Inkjet All-in-One Printer (C11CA50201)
p53
sL53L
VSwingline S.F. 3 Premium Chisel Point Staples, 0.25 Inch Leg Length, 105 Count Half Strips, Silver, 5000 Staples per Box (S7035440)
p54
sL54L
VBeacon Fabri-Tac Permanent Adhesive, 4-Ounce
p55
sL55L
VColumbian CO198 Invitation Envelopes A2 4-3/8 x 5-3/4 Inches, White (Box of 100)
p56
sL56L
VBoard Dudes SRX Magnetic Dry Erase Markers, 6-Pack, Assorted Colors (4560VA-12)
p57
sL57L
VPilot G2 Limited Retractable Gel Ink Roller Ball Pen, Fine Point, Silver Metallic Barrel, Black Ink (31153)
p58
sL58L
VSharpie Chisel Assorted 8 Pack
p59
sL59L
VAvery Heavy-Duty View Binder with 1.5-Inch One Touch EZD Ring, Navy Blue (79805)
p60
sL60L
VScanSnap S300M Clr 600DPI USB 10PG Adf Mobile Scanner
p61
sL61L
V5 Packs of US Patented 125 Ink Cartridge For Nx125 Nx127 Nx420 Nx625 Workforce 320 323 325 520 Printer -2 Black T125120/ 1 Cyan T125220/ 1 Magenta T125320/ 1 Yellow T125420
p62
sL62L
VCanon 104 Toner Cartridge - Black
p63
sL63L
VWilson Jones Insertable Tab Dividers, Multicolor Tabs , 8-Tabs, 1 Set (W54311A)
p64
sL64L
VFellowes Professional Series Executive Keyboard Tray (8036101)
p65
sL65L
VBrother MFC-9970CDW Color Laser All-in-One with Wireless Networking and Duplex
p66
sL66L
VPaper Clips, Size 1, Regular, .033 Wire Gauge, 100/Box, Silver
p67
sL67L
V3M Adjustable Monitor Stand, Height Adjusts 1 in to 5 7/8 in, Holds 80 lbs, 11 in Space Between Columns, Silver/Black
p68
sL68L
VBrother MFC-9840CDW Laser Multifunction Center
p69
sL69L
VBIC Mechanical Pencil with Colorful Barrels, Thick Point (0.9 mm), 24 Pencils
p70
sL70L
VCanon PIXMA MP640 Wireless Inkjet Photo All-In-One Printer (3748B002)
p71
sL71L
VSwingline Metal Fashion Stapler, Full Strip, 20 Sheets, Chrome/Blue Accent (S7087830)
p72
sL72L
VHP 60 Black / Color Original Ink Cartridge Combo Pack
p73
sL73L
VUniden 1380BK Corded Caller ID phone with Answering System, black, one phone
p74
sL74L
VFellowes Laminator L80-95, 9.5-Inch  with 10 Pouches (5711001)
p75
sL75L
VQuality Park Dab-n-Seal Envelope Moistener, 50 ml, 1 Bottle (46065)
p76
sL76L
VHP Color LaserJet 2600n Printer (Q6455A#ABA)
p77
sL77L
VFisher Space Pen ST Space-Tec Pen with Black Ink, Medium Point, Black Rubber Coated
p78
sL78L
VKensington 33374 Wireless Presenter with Laser Pointer
p79
sL79L
VDixon Ticonderoga Wood-Cased Pencils, #2 HB, Yellow,  Box of 96 (13882)
p80
sL80L
VScotch Super Strength Packaging Tape, 1.88 Inch x 38.2 Yards (3850S-RD)
p81
sL81L
VHammermill 10263-0 Hammermill Color Copy Paper, 32-lb., 8-1/2 x 11, Photo White, 500-Sheet Ream
p82
sL82L
VPrang Hygieia Chalk, 3.25 x .375 Inch Chalk Sticks, 12 Count, Assorted Colors (61400)
p83
sL83L
VLogitech Alto Express Notebook Stand
p84
sL84L
VHanging Name Badge Kit
p85
sL85L
VScotch Restickable Tabs, 0.5 Inch squares, 72 Tabs (R103)
p86
sL86L
VACCO Mini 0.5 Inch Binder Clips, 0.25 Inch Capacity, Black, 12 Clips per Box (A7072010)
p87
sL87L
VAdams Money and Rent Receipt Book, 2-Part Carbonless, 2.75 x 4.75 Inch Detached, Spiral Bound, 200 Sets per Book (SC1152)
p88
sL88L
VSharpie 25145 Accent Tank-Style Highlighter, Assorted Colors, 12-Pack
p89
sL89L
VPendaflex CutLess File Folders, 1/3 Cut, Top Tab, Letter, Assorted Colors, 100 Per Box,( 48440)
p90
sL90L
VAvery Permanent Print-To-The-Edge Round Labels, Laser/InkJet, 2.5-Inch, Brown Kraft, Pack of 225 (22808)
p91
sL91L
VEpson DURABrite T125120 Ultra 125 Standard-capacity Inkjet Cartridge -Black
p92
sL92L
VExpo Low Odor Chisel Tip Dry Erase Markers, 12 Colored Markers(80699)
p93
sL93L
VCanon PIXMA iP4300 Photo Printer (1438B002)
p94
sL94L
VPaper Mate Quick Flip 0.7MM Mechanical Pencil Starter Set, 4 Mechanical Pencils (1808783)
p95
sL95L
VTombow Dual Brush Pen Set, Professional Marker Desk Set with Stand, 96 Piece (56149)
p96
sL96L
VBlu-Tack Reusable Adhesive
p97
sL97L
VACCO Economy Jumbo Paper Clips, Smooth, Jumbo, 100/Box, 10 Boxes (72580)
p98
sL98L
VCanon Matte Photo Paper, 8.5 x 11 Inches, 50 Sheets (7981A004)
p99
sL99L
VRolodex Mesh Collection Jumbo Pencil Cup, Black (62557)
p100
sL100L
VNoodlers Ink 4.5Oz Heart Of Darkness W/Pen
p101
sL101L
VWilson Jones Resource Recycled 3-Ring Binder, Durable Hinge, 1 Inch Capacity, Green (W31920)
p102
sL102L
VDuck HP260 Carton Sealing Tape with Refillable Dispenser, 2 inch Width x 60 Yards, 3-Inch Core, Clear, 1 Roll, 07364
p103
sL103L
VVaultz A to Z CD and DVD Storage File Guides, 26 Guides per Box, Black (VZ01176)
p104
sL104L
VFellowes Laminator Neptune3 125 Laminator, 12.5-Inch  with 10 Pouches (5721401)
p105
sL105L
VVTech CS6419 DECT 6.0 Cordless Phone, Black/Silver, 1 Handset
p106
sL106L
VAllsop Monitor Stand Metal Art Jr. - Pewter (27021)
p107
sL107L
VWired Handheld USB Automatic Laser Barcode Scanner Reader With USB Cable
p108
sL108L
VAT&amp;T 17929 na 1-Handset 2-Line Landline Telephone
p109
sL109L
VSharpie 1883338 King Size Permanent Marker, Black, 4-Pack
p110
sL110L
VAvery Easy Load Top Loading Recycled Polypropylene Sheet Protectors, 100/box (75537)
p111
sL111L
VAvery Pen Style HI-LITER, Assorted Colors, Pack of 6 (23565)
p112
sL112L
VBIC Mechanical Pencil with Colorful Barrels, Medium Point (0.7 mm), 24 Pencils
p113
sL113L
VAvery Top Loading Clear Sheet Protectors, Heavyweight, 250 per Box #76006
p114
sL114L
VSwingline Optima Electric Pencil Sharpener, Fits Six Different Pencil Sizes (29968)
p115
sL115L
VBIC Cirstal Bold 1.6mm Ball Pen, Black, 12 Pens
p116
sL116L
VColumbian CO128 (#10) 4-1/8x9-1/2-Inch Security Tinted White Envelopes, 500 Count
p117
sL117L
VBIC Soft Feel Retractable Ballpoint Pen, Medium Point, Black, 12-Count
p118
sL118L
VNeenah Exact Index Cardstock , 110 lb, 8.5 x 11 Inches, 5 Color Pastel Assortment, 250 Sheets (48990)
p119
sL119L
VLamy Safari Fountain Pen, Blue (L14F)
p120
sL120L
VRubbermaid RM-P2 2-Step Molded Plastic Stool with Non-Slip Step Treads, 300-Pound Capacity, Black Finish
p121
sL121L
VPanasonic KX-TGA101S Extra Handset with Charger for KX-TG1032S, KX-TG1033S, KX-TG1034S Cordless Phones, Silver
p122
sL122L
VPost-It Super Sticky Notes Lined, 4 x 6-Inches, Canary Yellow, 5-Pads/Pack  (660-5SSCY)
p123
sL123L
VPilot Precise V5 RT Retractable Rolling Ball Pens, Extra Fine Point, Blue Ink, Dozen Box (26063)
p124
sL124L
VStanley Bostitch AntiJam Standard Booklet Stapler, 20 Sheet Capacity (B440SB)
p125
sL125L
VEpson B11B193141 Perfection V30 Photo Scanner
p126
sL126L
VAleratec Shredder Lubricant Sheets - White (240165)
p127
sL127L
VPaper Mate 67202 PhD Retractable Ballpoint Pen, Medium Point, Black Ink, Cherry Body
p128
sL128L
VEpson B11B178011 Perfection V700 Photo Scanner
p129
sL129L
VEpson C11CD29201 Expression Premium XP-810 Small Wireless Color Photo Printer with Scanner, Copier and Fax
p130
sL130L
VSamsung SL-M2020W/XAA Wireless Monochrome Printer
p131
sL131L
VCanon 4479A003 BCI-3eBK Black Ink Cartridge
p132
sL132L
VAmpad Evidence Quad Dual-Pad, Quadrille Rule, Letter Size (8.5 x 11.75), White, 100 Sheets per Pad (20-210)
p133
sL133L
VFellows Wire 5-Inch Legal Tray (65012)
p134
sL134L
VLow-Odor Dry Erase Markers, Ultra-Fine Point, Assorted Colors, Set of 8
p135
sL135L
VHammermill Tidal MP 20 lb 8 1/2 x 11 Inch Paper, 92 Brightness, 5000 sheets (16200-8)
p136
sL136L
VScotch Lightweight Shipping Packaging Tape, 1.88 Inches x 54.6 Yards, 6 Rolls (3350-6)
p137
sL137L
VFirst Alert 3026F Cash Box with Money Tray, Black
p138
sL138L
VRICSB 'The Butt' Office Supply Station Desk Accessory Holder, Orange
p139
sL139L
VHP All-in-One Printing Paper, 96 Brightness, 22 lb, Letter Size (8.5 x 11), 500 Sheets/Ream (20701-0)
p140
sL140L
VScotch Exterior Mounting Tape, 1-Inch by 60-Inch
p141
sL141L
VHP 12C Financial Calculator
p142
sL142L
VOriginal HP 22 Tri-color Ink Cartridge in Retail Packaging (CC580FN)(Twin pack)
p143
sL143L
VEpson WorkForce WF-3520 Wireless All-in-One Color Inkjet Printer, Copier, Scanner, 2-Sided Duplex, ADF, Fax. Prints from Tablet/Smartphone. AirPrint Compatible (C11CC33201)
p144
sL144L
VEpson T060120 DURABrite Ultra 60 Standard-capacity Inkjet Cartridge -Black
p145
sL145L
VCanon MP620 Wireless All-in-One Photo Printer
p146
sL146L
VPilot G-Tec-C Gel Rolling Ball Pens, Ultra Fine Point, 2-Pack, Blue Ink (35482)
p147
sL147L
VRubbermaid Extra Deep Desk Drawer Director Tray, Plastic, 11.875 x 15 x 2.5 Inches, Black (11906ROS)
p148
sL148L
VWeighmax 2822-75LB postal shipping scale, Battery and AC Adapter Included
p149
sL149L
VSmead Lockit Folder, Letter Size, Two-Pocket, Black, 25 per Box (87981)
p150
sL150L
VCanon PGI-225 BK/ CLI-226 4530B008 C,M,Y 4 Pack Value Pack in Retail Packaging
p151
sL151L
VVision Elite Stick Roller Ball Pens, Bold Point, Red Ink, Pack of 12
p152
sL152L
VCanon 4479A292 BCI-3e/BCI-6 Cartridges and Glossy Photo Paper Combo Pack
p153
sL153L
VPilot G2 Breast Cancer Awareness Pink Pens with Black Ink, Retractable Gel Ink Rolling Ball, Fine Point, 2-Pack (31331)
p154
sL154L
VPaper Mate Sharpwriter 0.7mm Mechanical Pencils, 12 Yellow Pencils (3030131)
p155
sL155L
VPost-it Notes, Original Cube, 3 Inches x 3 Inches, Fruit Design, 3 Cubes Per Pack (C300-F-3PK)
p156
sL156L
VSwingline Deluxe Staple Remover, Extra Wide, Steel Jaws, Black (S7038101)
p157
sL157L
VMead Organizher Monthly Undated Tabbed Wall Calendar, One Year, 12 x 17 Inches (47037)
p158
sL158L
VSparco Steel Mesh Pencil Cup - Black
p159
sL159L
VDayMinder Recycled Monthly Planner, 8 x 11 Inches, Black, 2013 (SK2-00)
p160
sL160L
VScotch Bi-Directional Filament Tape 8959 Transparent, 50 mm x 50 m, Conveniently Packaged (Pack of 1)
p161
sL161L
VMesa Label Express&reg; Dymo Compatible SHIP-30915 Endicia Internet Postage Stamps (700 per Roll)
p162
sL162L
VCanon imageFORMULA P-208 Scan-tini Personal Document Scanner
p163
sL163L
VPost-it Flag+ Highlighter, Yellow, Pink, and Blue, 50-Color Coordinated Flags/Highlighter, 3-Pack
p164
sL164L
VHP Officejet Pro 8500A Premium Wireless e-All-in-One (CM758A#B1H)
p165
sL165L
VMagna Cart Personal Hand Truck
p166
sL166L
VAvery Printable Bag Toppers with Bags, Pack of 40 (22801)
p167
sL167L
VBIC Matic Grip Mechanical Pencil, Fine Point (0.5 mm), 12-Count, Assorted Colors
p168
sL168L
VHP 88XL Officejet Ink Cartridge in Retail Packaging-Black
p169
sL169L
VCanon PIXMA MX522 Wireless Color Photo Printer with Scanner, Copier and Fax
p170
sL170L
VAvery Removable Shelf Tags for Laser Printers, 2 x 2.25-Inches, Pack of 120 (22803)
p171
sL171L
VAvery Laser &amp; Ink Jet White 3 x 5 Inch Index Cards 150 Count (5388)
p172
sL172L
VScotch Easy-Grip Tape Dispenser, 1.88 Inches x 600 Inches ( DP-1000)
p173
sL173L
VCasio TQ140 Travel Alarm Clock - Bla Clock Radios
p174
sL174L
VDri-Mark Smart Money Counterfeit Bill Detector Pen for Use with U.S. Currency, Black/Dark Brown (351B1)
p175
sL175L
VHP 56 C6656AN#140 Ink Cartridge in Retail Packaging-Black
p176
sL176L
VQuartet Magnetic Dry Erase Board, Plastic Frame, 11 x 17 Inches, White (MHOW1117)
p177
sL177L
VBIC Round Stic Ball Pen, Fine Point, 0.8mm, Black, 12 Pens (GSF11-Blk)
p178
sL178L
VFujitsu ScanSnap PA03603-B005 S1300 Instant PDF Sheet-Fed Mobile Scanner
p179
sL179L
VBIC Round Stic Ballpoint Pens, 1.0 mm, Blue,  Box of 12 (GSM11-Blu)
p180
sL180L
VFiskars 12-27457097 Gel Pen, 48-Piece Value Set
p181
sL181L
VAvery NoteTabs, 2 x 1.5 Inches, Neon Blue and Magenta, 40 per pack (16293)
p182
sL182L
VSophia Global Compatible Ink Cartridge Replacement for Canon PGI-220 and CLI-221 (1 Large Black, 1 Small Black, 1 Cyan, 1 Magenta, and 1 Yellow)
p183
sL183L
VAmazonBasics 17-Sheet Cross-Cut Paper, CD, and Credit Card Shredder with Pullout Basket
p184
sL184L
VAvery T-shirt Transfers for Inkjet Printers, 8.5 x 11 Inches, Pack of 18 (08938)
p185
sL185L
VHP 61XL CH563WN#140 Ink Cartridge in Retail Packaging- Black
p186
sL186L
V1000 Half Sheet Laser/Ink Jet Shipping Labels (Compare to Avery 5126)
p187
sL187L
VComputer Mouse Wrist Cushion, Gray
p188
sL188L
VCanon imageFORMULA DR-M160 Office Document Scanner
p189
sL189L
VCompulabel White Address Labels for Laser and Inkjet Printers, 4 x 3 1/3 Inch, Permanent Adhesive, 6 per Sheet, 100 Sheets per Carton
p190
sL190L
VPilot G2 Pro Retractable Gel Ink Roller Ball Pen, Fine Point, Gray Barrel, Black Ink (31147)
p191
sL191L
VHP 96 Ink Cartridge in Retail Packaging-Black
p192
sL192L
VLamy Safari Fountain Pen Charcoal Ex-Fine, L17EF
p193
sL193L
VAvery HI-LITER Desk Style Highlighters, Assorted Colors, 4 Pack (24063)
p194
sL194L
VWestcott Soft Handle Kids Scissors with Anti-microbial Protection, Assorted Colors, 5-Inch Blunt, 12 Pack (14873)
p195
sL195L
VAnji Mountain AMB24008 Bamboo Roll-Up Chairmat with Lip, Natural, 55-Inch by 57-Inch
p196
sL196L
VAvery Sticky Notes, See-Through, Large Arrow, 2.75 x 2.75 Inches, Yellow and Magenta, 60 Sheets (22590)
p197
sL197L
VStanley Bostitch All Metal Economy Stapler, 20 Sheet Capacity, Black (B515-BLACK)
p198
sL198L
VTze315 White On Black For Tz Models 6mm .23in
p199
sL199L
VUni-ball Jetstream 101 Bold Point Rollerball Pens, Colored Ink, 3 Pens (1772523)
p200
sL200L
VDYMO 30256 LabelWriter Self-Adhesive Large Shipping Labels, 2 5/16- by 4-inch, White, Roll of 300
p201
sL201L
VDuck Brand Self-Locking Mailing Boxes, Sample Size, 9.5&quot; x 6.5&quot; x 3.25&quot;, White, 25-Pack (1147601)
p202
sL202L
VBIC Round Stic Ball Pens, Medium Point, Blue, 10 Pens
p203
sL203L
VDuck Brand HD  Packaging Tape, 1.88 inch x 54.6 Yard, Crystal Clear, 6 Rolls (CS-55-6pk)
p204
sL204L
VBrother Printer HLL8350CDW Wireless Color Laser Printer
p205
sL205L
VBlack &amp; Decker Fast Heat Laminator (LAM95FH)
p206
sL206L
VElmer's All-Purpose Glue Stick, Large, 0.77 oz, Single Stick (E515)
p207
sL207L
VAT-A-GLANCE 2014 Monthly Desk Pad, Black and White, 22 x 17 Inches (SK24-00)
p208
sL208L
VPaper Mate White Pearl Premium Erasers, White, 3 Pack  (70624)
p209
sL209L
VSpectrum 43310 Wall-Mount Scroll Letter Holder, Black
p210
sL210L
VSamsung SL-C1810W/XAA Wireless Color Printer
p211
sL211L
VBankers Box Stor/File Medium-Duty Storage Boxes, Letter/Legal, 12 Pack (00789)
p212
sL212L
VFellowes Professional Executive Adjustable Keyboard Tray (8035901)
p213
sL213L
VSmart Weigh SWS1KG Elite Digital Pocket Scale 1000 x 0.1g
p214
sL214L
VCanon Office Products MX532 Wireless Office All-In-One Printer
p215
sL215L
VAlera Elusion Series Mesh High-Back Multifunction Chair, Black
p216
sL216L
VSwingline SmartTouch Compact Stapler, Reduced Effort, 25 Sheets, White/Yellow (S7066510)
p217
sL217L
VCanon i960 Photo Printer
p218
sL218L
VScotch Sure Start Shipping Packaging Tape with Dispenser, 1.88 Inches x 38.2 Yards, 1 Roll with Dispenser (3450S-RD)
p219
sL219L
VEpson T273120 Epson Claria Premium 273 Standard-capacity Photo Black Ink Cartridge (T273120) Ink
p220
sL220L
VEpson WorkForce 630 Wireless All-in-One Color Inkjet Printer, Copier, Scanner, Fax (C11CB07201)
p221
sL221L
VHammermill Laser Print Copy/Laser Paper, 98 Brightness, 24lb, Letter Size (8.5 x 11), White, 500 Sheets (10460-4)
p222
sL222L
V10 Pack Compatible Canon PGI-250 , CLI-251, Canon 251, Canon 250 2 Small Black, 2 Cyan, 2 Magenta, 2 Yellow, 2 Big Black for use with Canon PIXMA iP7220, PIXMA MG5420, PIXMA MG5422, PIXMA MG6320, PIXMA MX722, PIXMA MX922. Ink Cartridges for inkjet printers. CLI-251BK , CLI-251C , CLI-251M , CLI-251Y , PGI-250BK &copy; Blake Printing Supply
p223
sL223L
VSemikolon Sticky Page Markers, Assorted Colors (5100001)
p224
sL224L
VPilot Acroball Pro Retractable Advanced Ink Ball Point Pens, Medium Point, Assorted Color Ink, 3-Pack (31922)
p225
sL225L
VBrother QL-700 High-speed, Professional Label Printer
p226
sL226L
VAmazonBasics  Mouse Pad - Black
p227
sL227L
VAT-A-GLANCE 2014 Monthly Planner, Blue, 9.5 x 11.38 x .25 Inches (7026020)
p228
sL228L
VEcolite Kraft Bubble Mailer, #0, 6.5&quot; x 9&quot;, Pack of 250
p229
sL229L
VSterilite ClearView 3 Storage Drawer Organizer
p230
sL230L
VFellowes PET Ultra Clear Binding Covers, Letter, 7 Mil, 100 Pack (5242401)
p231
sL231L
VInnovera Gel Keyboard Wrist Rest- Purple
p232
sL232L
VScotch Magic Tape, 1/2 x 450 Inches (104)
p233
sL233L
VPrismacolor Premier Colored Pencils, Assorted Colors, 24 Pencils
p234
sL234L
VScotch&reg; Laminating Sheets LS854SS-10, 9 Inches x 12 Inches, Letter Size, Single Sided
p235
sL235L
VWilson Jones View-Tab Transparent Dividers, Extra Wide, 5-Tab Set, Multicolor Square Tabs (W55069)
p236
sL236L
VBrother Printer HL3170CDW Wireless Color Printer with Wireless Networking and Duplex for Small Businesses
p237
sL237L
VScotch Magic Tape, 3/4 x 1000 Inches, Boxed, 12 Rolls (810K12)
p238
sL238L
VHighland 6539 Self-Stick Notes, 1-3/8-Inch by 1-7/8-Inch, Yellow, 100 Sheets per Pad (12 Pack)
p239
sL239L
VHON Volt H5705 Task Stool for Office or Computer Desk, Black
p240
sL240L
VVTech CS6429-4 DECT 6.0 Cordless Phone, Silver/Black, 4 Handsets
p241
sL241L
VAvery NoteTabs Round Edge, 2 x 1.5 Inches, Citrus, 20 per pack (16306)
p242
sL242L
VQuartet 5001M EnduraGlide Chisel Tip Dry Erase Marker - 4 Pack, Assorted Colors
p243
sL243L
VCanon Pixma iX6520 Inkjet Printer (4895B002)
p244
sL244L
VUNV24264 - Golf Pew Pencil 144/box
p245
sL245L
VScotch Thermal Laminator Combo Pack, Includes 12 Assorted Pouches (TL902E)
p246
sL246L
VC-Line 13-Pocket Expanding File, Includes Tabs, Letter Size, 1 Expanding File, Plaid Design (58312)
p247
sL247L
VKensington Wireless Presenter with Laser Pointer and 2 GB Built-in Memory (Black)
p248
sL248L
VAvery Worksaver Big Tab Plastic Dividers with Slash Pocket, 8 Tab, Letter Size(8.5 x 11), Assorted, 8 per Set (11903)
p249
sL249L
VPost-it Study Kit with Tabs, Flags, Arrow Flags, Note Tabs, Grid Notes, Full Adhesive Notes, Label Pads, and Flag + Highlighter
p250
sL250L
VAvery Metal Rim Key Tags, Card Stock/Metal, White, 50 per Pack (11025)
p251
sL251L
VBrother Printer MFCJ825DW Wireless Color Photo Printer with Scanner, Copier and Fax
p252
sL252L
VSmead Self-Adhesive Poly Pockets, Acid Free, 9 x 5-9/16 Inches, Crystal Clear, 5 per Pack (68186)
p253
sL253L
VSwingline Optima High Capacity Staples, for 60/70 Sheets staplers, 3/8-Inch Leg Length, 125 per Strip, 2500 per Box (S7035550)
p254
sL254L
VColumbian CO196 (#10) 4-1/8x9-1/2-Inch White Envelopes, 100 Count
p255
sL255L
VLuster Leaf Rapiclip 6-Inch Garden Plant Labels - 50 Pack 840
p256
sL256L
VBrother HL-5370DW Laser Printer
p257
sL257L
VCanon PIXMA MG4220 Wireless Color Photo Printer with Scanner and Copier
p258
sL258L
VMead Press-It Seal-It 6X9 Envelopes, Office Pack 30 Count (76084)
p259
sL259L
VNeenah Astrobrights Premium Color Card Stock, 65 lb, 8.5 x 11 Inches, 250 Sheets, Lunar Blue
p260
sL260L
VPost-it Tabs, 2-Inch Lined, 4 Assorted Bright Colors, 6-Tabs/Color, 24-Tabs/Pack
p261
sL261L
VBIC Velocity Bold Ball Pen, 1.6mm, Black, 12ct (VLGB11-Blk)
p262
sL262L
V3M Permanent Adhesive Shipping Labels, 2 x 4 Inches, White, 2500 per Pack (3100-U)
p263
sL263L
VBIC Mark-It Color Collection Permanent Markers, Fine Point, Assorted, 12 Markers
p264
sL264L
V350 ft 3/16&quot; SMALL BUBBLE WRAP 12&quot; wide, perforated every 12&quot;, 350 total sq ft
p265
sL265L
VEpson Stylus Photo R1900 Large Format Photo Printer (C11C698201)
p266
sL266L
VEpson Perfection V330 Photo Scanner (B11B200211)
p267
sL267L
VPilot B2P - Bottle to Pen - Retractable Ball Point Pens Made from Recycled Bottles, 2 Pen Pack, Fine Point, Black (32605)
p268
sL268L
VQuartet Magnetic Mail Organizer Storage Pouch, 10 x 7 Inches, Black (48123-BK)
p269
sL269L
VScotch Multi-Purpose Fasteners, 5/8 x 5/8 Inch, Black, 16 Sets per Pack (RF7061)
p270
sL270L
VSaunders SlimMate Plastic Storage Clipboard, 00559, Letter Size (8.5 inch x 12 inch), Blue
p271
sL271L
VAvery Nonstick Heavy-Duty EZD Reference View 3 Inch Black Binder (79693)
p272
sL272L
VRolodex Mesh Collection 3-Tier Desk Shelf, Letter-Size, Black (22341)
p273
sL273L
VRoyal Sovereign Assorted Coin Preformed Wrappers, 216 Count (FSW-216N)
p274
sL274L
VHP 75 Tri-Color Inkjet Print Cartridge (CB337WN)
p275
sL275L
VRefills for Bullet Fisher Space Pen 3 Pack Black SPR4
p276
sL276L
VBrother Printer LC753PKS 3 Pack- 1 Each LC75C, LC75M, LC75Y Ink
p277
sL277L
VSwingline Stratus Acrylic Pen Cup, 4.25 x 2.75 x 4.5 Inches, Clear (S7010137)
p278
sL278L
VScotch PRO Thermal Laminator, 2 Roller System, 16.06 x 4.25 x 4.96 Inches
p279
sL279L
VHP LaserJet Pro P1606dn Printer (CE749A#BGJ)
p280
sL280L
VHON Ignition Series Mid-Back Work Chair with Mesh Back and Adjustable Arms for Office or Computer Desk, Taupe
p281
sL281L
VRolodex Mesh Collection Oval Supply Caddy, Black (1746466)
p282
sL282L
VEpson DURABrite T126520 Ultra 126 High-capacity Inkjet Cartridge Color Multipack -Cyan/Magenta/Yellow
p283
sL283L
VGP Ink Jet and Laser Paper, 8.5 x 11 Inches Letter Size, White, 3 Reams/Carton (1500 Sheets) (998072C)
p284
sL284L
VAvery Protect and Store View Binder with 1 Inch EZ-Turn Ring, 5.5 x 8.5 Inches , White (23011)
p285
sL285L
VQuze Adjustable Wooden Laptop Desk Notebook Computer Stand with Built in Cooling Fan Portable, Foldable Lap Desk (Wood)
p286
sL286L
VCanon BCI-6BK Ink Tank-Black
p287
sL287L
VQuartet EnduraGlide Accessory Kit, 4 Chisel-Point Dry Erase Markers in Mixed Colors, With Eraser and Cleaning Spray (5001M-4SK)
p288
sL288L
VBankers Box File Medium-Duty Storage Boxes with Lift-Off Lid, Legal, 4-Pack (0070209)
p289
sL289L
VColumbian CO125 Executive Business Envelopes with Gummed Seal - White (Box of 500)
p290
sL290L
VUni-Ball Jetstream Sport RT Ballpoint Retractable Pen, Black Ink, Bold Point, Dozen (SAN1738685)
p291
sL291L
VAvery Magnet Sheets, 8.5 x 11 Inches, White (03270)
p292
sL292L
VPanasonic KX-MB2061 Multi-Function Laser Printer and Communication Center
p293
sL293L
VCanon CL-211 XL Cartridge
p294
sL294L
VPentel EnerGel  Deluxe RTX Retractable Liquid Gel Pen, 0.7mm, Needle Tip, Violet Ink, 2 Pack (BLN77BP2V)
p295
sL295L
VWeighmax 35LBS Digital Postal Scales Shipping Scale (Colors May Vary)
p296
sL296L
VBrother MFC-6490CW Wireless All-in-One Inkjet Printer
p297
sL297L
VDixon Ticonderoga Wood-Cased Pencils, #2, Yellow,  Box of 24 (13924)
p298
sL298L
VEpson LabelWorks Standard LC Tape Cartridge ~1/2-Inch Gold on Black (LC-4BKP9)
p299
sL299L
VHP Officejet 5610 All-in-One Printer (Q7311A#ABA)
p300
sL300L
VFellowes Gel Crystal Mousepad/Wrist Rest, Blue (91141)
p301
sL301L
V3M  Display Pocket, Removable Fasteners, 8.5 X 11 Inches, Clear Plastic (MMMWL854C)
p302
sL302L
VHP OJ 7610 Wireless Color Photo Printer with Scanner, Copier and Fax
p303
sL303L
VMead RediSpace Transitional NoteBook Paper, Stage 4, 10.5 x 8 Inches, 50 Count (48018)
p304
sL304L
VTaoTronics&reg; TT-BS005 Automatic Sensing and Scan Handheld BarCode Scanner / Reader - White, USB Wired, Optical Laser, Long Range, Standing Bracket Included
p305
sL305L
VSwingline Commercial Desk Stapler, 20 Sheets, Black (44401)
p306
sL306L
VBrother DR110CL Replacement Drum Unit Compatible with Brother HL4040CN,HL4070CDW Series
p307
sL307L
VAdvantus Corporation Cropper Hopper Home Center Rolling Cart, 10 Drawer Smoke
p308
sL308L
VWilson Jones Ultra Duty Round Ring View Binder with Extra Durable Hinge, 3 Inch, White (W87911PP3)
p309
sL309L
VAvery Filler Paper, 5.5 x 8.5 Inches, 100 Sheets (14230)
p310
sL310L
V3M Polarizing LED Task Light Desk Lamp, Touch Sensor Control, 5 Brightness Settings, Easy Adjust, UL Approved, Black
p311
sL311L
VPost-it Pop-up Notes Dispenser for 3 x 3-Inch Notes, Apple Shaped Dispenser, Includes 1 Canary Yellow Note
p312
sL312L
VCanon Pixma MX850 Office All-In-One Inkjet Printer (2436B002)
p313
sL313L
VFellowes Booklift Copyholder, Platinum (21100)
p314
sL314L
V3M Whiteboard Eraser for Whiteboards, 2-Pack
p315
sL315L
VFiskars 12 Inch Bypass Bamboo Base Titanium Carbide Blade Paper Trimmer (01-005744)
p316
sL316L
VZebra Stylus Pen with Super Smooth Advanced Ink- Black Ink, Onyx Barrel- 1 pack
p317
sL317L
V(400 Sheets; 800 Labels), Same Size as Avery&copy; 5126, 2-UP, Half Sheet Internet Postage/Shipping Labels (5-1/2&quot; x 8-1/2&quot;) -- BPA Free! ONLY HouseLabels sells genuine HouseLabels' products -- other vendors sell their own version
p318
sL318L
VDouble A Copy Paper, 8.5x11 Inches Letter Size, 22 Pound, 94 Bright White, 500 Sheets (AA 22# 5RM CART)
p319
sL319L
VKodak i2800 Scanner
p320
sL320L
VVTech ip5850 5.8 GHz DSS Cordless Phone with Dual Handsets and Digital Answering System
p321
sL321L
VSwingline Stratus Acrylic Letter Sorter, 7.5 x 3.25 x 3.5, Clear (S7010134)
p322
sL322L
VPlantronics CT12 2.4 GHz DSS Cordless Headset Phone with Caller ID
p323
sL323L
VGenius Ring Presenter - Blue Finger Mouse with Laser Pointer
p324
sL324L
VAvery Economy Binder, 3-Inch Round Ring, Black, 1 Binder (3602)
p325
sL325L
VHP 564XL Photo Ink Cartridge in Retail Packaging (CB322WN#140)
p326
sL326L
VPaperPro Full Strip Standard office Staples, 5000/Box  (1901)
p327
sL327L
VBankers Box SmoothMove Wardrobe Box, 24 x 24 x 40 Inches, 3 Pack (7711001)
p328
sL328L
VHON HVL151 Executive High-Back Chair for Office or Computer Desk, Black
p329
sL329L
VDuck Brand 393185 1.88 Inch by 22.2 Yard EZ Start Carton Sealing Tape with Dispenser, Clear
p330
sL330L
VScotch Self-Sealing Laminating Pouches, Bag Tags with Loops, Glossy, 5 Pouches (LS853-5G)
p331
sL331L
VQuartet EnduraGlide Dry-Erase Markers, Bullet Tip, Assorted Colors, 4 Pack (5001-1M)
p332
sL332L
VAT&amp;T E5965C 5.8 GHz DSS Expandable Cordless Phone with Answering System
p333
sL333L
VHighland Notes, 3 x 3-Inches, Yellow, 18-Pads/Pack
p334
sL334L
VFellowes Hot Laminating Pouches, Letter, 5 mil, 100 Pack (52040)
p335
sL335L
VCasio Graphing Calculator (FX-9750GII)
p336
sL336L
VStanley Hardware V8208 Magnetic Doorstop in Satin Nickel
p337
sL337L
VLD &copy; Remanufactured Replacement Laser Toner Cartridge for Hewlett Packard Q5949X (HP 49X) High-Yield Black for use in the LaserJet 1320, 1320n, 1320nw, 1320t, 1320tn, 3390 &amp; 3392 Printers
p338
sL338L
VActto Green Portable Reading Stand/Book stand Document Holder (180 angle adjustable)
p339
sL339L
VHP 78A Black Original LaserJet Toner Cartridge
p340
sL340L
VAvery White Repositionable Address Labels for Laser Printers, 1 x 2.625 Inches, Box of 3000 (55160)
p341
sL341L
VHP Photosmart Pro B8850 Fotodrucker A3+ 6.0 Foto / Minute 4800 dpi USB 2.0
p342
sL342L
VAvery Easy Peel Permanent Print-To-The-Edge Round Labels, Laser/InkJet, 2-Inch, Glossy White, Pack of 120 (22807)
p343
sL343L
VHP 940XL C4906AN140 Ink Cartridge in Retail Packaging-Black
p344
sL344L
VFellowes Gel Crystals Wrist Rest, Blue (91137)
p345
sL345L
VKensington Solemate Comfort Footrest with SmartFit System (K56144US)
p346
sL346L
VVTech CS6209 DECT 6.0 Accessory Handset for use with models CS6219&amp;CS6229
p347
sL347L
VPaper Mate 1746324 Retractable Gel Pen, Medium Point, Black, 12-Pack
p348
sL348L
VSmead Organizer Folder, Three 1/3-Cut Tabbed Dividers, Letter Size, Assorted Colors, 3 per Pack (85785)
p349
sL349L
VLamy Cartridges Refill - Black -5-pack T10BK
p350
sL350L
V200 Half Sheet Shipping Labels Laser/Inkjet USPS UPS Fedex
p351
sL351L
V5 Checkbook Transaction Registers 2014-2015-2016 Calendars
p352
sL352L
VAvery Flags, 0.5 Inch, Standard Colors, 100 Flags (22569)
p353
sL353L
VBankers Box SmoothMove Picture/Mirror Box, Adjustable, 40 x 60 x 4 Inches, 3 Pack (7711401)
p354
sL354L
VColumbian CO755 6x9-Inch Clasp Brown Kraft Envelopes, 100 Count
p355
sL355L
VBrother TN-210BK Toner Cartridge - Retail Packaging - Black
p356
sL356L
VAvery Self-Adhesive Removable Labels, 3 x 4 Inches, White, 80 per Pack (05453)
p357
sL357L
VEpson DURABrite T068520 Ultra 68 High-capacity Inkjet Cartridge Color Multipack-Cyan/Magenta/Yellow
p358
sL358L
VD1483 DECT 6.0 Cordless Phone with Digital Answering System, White, 1 Handset
p359
sL359L
VDixon Prang Presharpened 7-Inch Colored Pencils, 12-Color Set (22120)
p360
sL360L
V3M VHB Heavy Duty Mounting Tape 5952 Black, 3/4 in x 15 yd 45 mil
p361
sL361L
VKodak 8367849 Combo Ink Cartridge
p362
sL362L
VWaterman Black Medium Point Ballpoint Pen Refill
p363
sL363L
VPost-it Super Sticky Notes, Evernote Collection, 3 x 3 Inches, Electric Yellow, 4 Pads per Pack, 90 Sheets per Pad (654-4SSY-EV)
p364
sL364L
VSmead Frequency Expanding Files, Waterproof and Tear Resistant Materials (70863)
p365
sL365L
VSparco Nickel Plated Call Bell, 2 3/4-Inch High, 3 3/8-Inch Base, Chrome/Black (SPR01583)
p366
sL366L
VEpson B11B207221 Epson Perfection V370 Color Photo Scanner (B11B207221) Scanner
p367
sL367L
VEpson Presentation Paper Matte, 8.5 x 11 Inches, 100 Sheets (S041062)
p368
sL368L
VAvery Self-Adhesive Laminating Sheets, 9 x 12 Inches, Box of 50 (73601)
p369
sL369L
VOfficemate Small Binder Clips, Black, 12 Boxes of 1 Dozen Each (144 Total) (99020)
p370
sL370L
VPentel R.S.V.P. Ballpoint Pen, Medium Point, Assorted Ink Colors, 8 Pack  (BK91CRBP8M)
p371
sL371L
VAvery Sticky Notes See-Through, 3 x 3 Inches, Yellow, 50 Sheets (22585)
p372
sL372L
VBic Correction Fluids (BICWOFQDP1WHI)
p373
sL373L
VPaperPro Evo Desktop Stapler, 20 Sheet Capacity, Black (1423)
p374
sL374L
VHP 901 Tri-Color Original Ink Cartridge
p375
sL375L
VSharpie RT Retractable Permanent Markers, 12 per Package
p376
sL376L
VSwingline Stratus Acrylic Business Card Holder, 4.5 x 3.5 x 2.25 Inches, Clear (S7010135)
p377
sL377L
VNeo-Flex LCD Stand
p378
sL378L
VMead Organizher Expense Tracker, 8.5 x 11 Inches, Purple Poly (64047)
p379
sL379L
V2014-15 Academic Year bloom Daily Day Planner Fashion Organizer Agenda August 2014 Through July 2015 Black
p380
sL380L
VMonMount Dual LCD Freestanding Monitor Stand Up to 24-Inch, Black (LCD-6460B)
p381
sL381L
VStanley Bostitch QuietSharp Executive Electric Pencil Sharpener, Black (EPS9V-BLK)
p382
sL382L
VPilot G2 Retractable Premium Gel Ink Roller Ball Pens, Extra Fine Point, 2-Pack, Blue Ink (31015)
p383
sL383L
VPaperPro Generation II Hi-Start Stapler (1460)
p384
sL384L
VBAZIC Super Glue, 3 grams 0.10 ounces, 6 Per Pack
p385
sL385L
VSharpie 75846 Fine Point Permanent Marker, Assorted Colors, 24-Pack
p386
sL386L
VQuality Park Gift-e-lope Holiday Expand-on-Demand Mailers with Shippable Outer Package, Holiday Printed, Assorted Sizes, Pack of 6 (65111)
p387
sL387L
VCanon PIXMA MG6220 Wireless Inkjet Photo All-in-One Printer (5292B002)
p388
sL388L
VFellowes Laminator Cosmic2 95, 9.5-Inch  with 10 Pouches (5725601)
p389
sL389L
VLogitech G440 Hard Gaming Mouse Pad for High DPI Gaming
p390
sL390L
VClarity XLC3.4 Amplified Cordless Phone (59234)
p391
sL391L
VHewlett-Packard - HP 932XL Ink Cartridge, 1000 Pages Yield-Black
p392
sL392L
VPrismacolor Verithin Colored Pencils,  Set of 24 Assorted Colors  (2427)
p393
sL393L
VPost-it Note Tabs, 3-3/8 x 2-3/4-Inches, Green and Blue, Lined Paper, 25-Sheets/Pad, 2-Pads/Pack
p394
sL394L
VTop Flight Two Pocket Portfolio with Tangs, Assorted Colors, 6 Pack (4660250)
p395
sL395L
V200 6x9 WHITE POLY MAILERS ENVELOPES BAGS 6 x 9
p396
sL396L
VSparco 86000 Staple Remover, Color May Vary
p397
sL397L
VQuartet&reg; Magnetic Combination Calendar Board, 17&quot; x 23&quot;, Dry-Erase &amp; Cork, 1-Month Design with List, Black Frame (79380-WM)
p398
sL398L
VNone
p399
sL399L
V3M Permanent Adhesive Recycled Address Labels, 1 x 2 5/8&quot;, White, 750 per Pack (3700-A)
p400
sL400L
VHP 35s Scientific Calculator
p401
sL401L
VErgotech Triple Desk Stand with Telescopic Wings with Ice Cube (100-D16-B03-TW-Ice)
p402
sL402L
VLetter Laminating Pouches 5 Mil 9 x 11-1/2 Hot Qty 100
p403
sL403L
VSharpie Extra Fine Permanent Markers, 1 Box (12 Black Marker (35001))
p404
sL404L
VNeenah Exact Index Cardstock, 90 lb, 8.5 x 11 Inches, 250 Sheets, White, 94 Brightness
p405
sL405L
VSmead Project Organizer, Letter Size, 10 Pockets, Navy (89200)
p406
sL406L
VHP 78 Tri-Color Printer Cartridge (C6578DN)
p407
sL407L
V3-1/2 cu (26 gal) ft Pink Anti Static Packing Peanuts
p408
sL408L
V100 14.5x19 POLY MAILERS ENVELOPES SHIPPING BAGS 14.5 x 19
p409
sL409L
VEpson Stylus Pro 3880 Color Inkjet Printer (CA61201-VM)
p410
sL410L
VDigital Postal Shipping Postage Bench Scales 75 lbs
p411
sL411L
VMead Early Learning Idea builders, Stage Three, 10 x 8 Inches, 48 Sheets
p412
sL412L
VPost-it Tabs with On-the-Go Dispenser, 1-Inch Solid, Red, Yellow, Blue, 22-Tabs/Color, 66-Tabs/Dispenser
p413
sL413L
VSharpie Accent Tank-Style Highlighters, 12 Yellow Highlighters(25005)
p414
sL414L
VSnap-N-Store Large Storage Box, 9.625 x 14 x 13.75 Inches, Black (SNS01500)
p415
sL415L
VAvery DVD Labels Matte White for Ink Jet Printers (8962)
p416
sL416L
VBoard Dudes Double Sided Dry Erase Lapboard, 9 x 12 Inches (11060-6)
p417
sL417L
VX-ACTO Commercial Grade Wood 24 x 24 Inch Square Guillotine Trimmer (26624)
p418
sL418L
VAT&amp;T SL82318 DECT 6.0 Cordless Phone, Silver/Gray, 3 Handsets
p419
sL419L
VHP Envy 4500 Wireless Color Photo Printer with Scanner and Copier
p420
sL420L
VCrayola 10-Pack Fabric Markers
p421
sL421L
VCanon 4549B001 CLI-226 Ink Tank-Yellow
p422
sL422L
VUSPS PS-10USBGB Desktop Postal Scale with USB Port - 10 lb. Load Capacity
p423
sL423L
VEpson WorkForce WF-7510 Wireless All-in-One Wide-Format Color Inkjet Printer, Copier, Scanner, Fax (C11CA96201)
p424
sL424L
VPaper Mate Profile Retractable Ballpoint Pens, 4 Black Ink Pens(89471)
p425
sL425L
VHP 61 Tri-Color Original Ink Cartridge
p426
sL426L
VSmead Easy Grip Pocket - Letter, 3.5-Inch Expansion, 25 per Box (73208)
p427
sL427L
VPanasonic KX-TG6533B DECT 6.0 PLUS Expandable Digital Cordless Phone (Black)
p428
sL428L
VCanon Office Products IX6820 Wireless Inkjet Business Printer
p429
sL429L
VPilot G2 Retractable Premium Gel Ink Roller Ball Pens, Bold Point, 4-Pack, Assorted Colors, Black/Blue/Red/Green (31255)
p430
sL430L
VScotch Heavy Duty Packaging Tape, 1.88 Inches x 800 Inches, 6 Rolls (142-6)
p431
sL431L
VPolder 2-Step Designer Step Stool with Rail, Argento Silver and Black
p432
sL432L
VSharpie 30588PP Oil-Based Extra Fine Point Paint Marker, Metallic, 2-Pack
p433
sL433L
VPrismacolor Oval Pencil Sharpener
p434
sL434L
VPilot Dr. Grip Limited Retractable Rolling Ball Gel Pen, Fine Point, Charcoal Gray Metallic Barrel, Black Ink (36270)
p435
sL435L
VFellowes 4609001 Powershred 99Ms Micro-Cut Shredder
p436
sL436L
VAvery Nonstick Heavy-Duty EZD Reference View 2 Inch White Binder (79192)
p437
sL437L
VFellowes Wire Drawer Sorter (73014)
p438
sL438L
VPaper Mate 35830 Profile Retractable Ballpoint Pens, Purple, 12-Pack
p439
sL439L
VSwingline Stratus Acrylic Magazine Rack, 10.5 x 10.25 x 3.5, Clear (S7010133)
p440
sL440L
VEpson WorkForce WF-3640 Wireless and WiFi Direct All-in-One Color Inkjet Printer, Copier, Scanner, 2-Sided Auto Duplex, ADF, Fax. Prints from Tablet/Smartphone. AirPrint Compatible. (C11CD16201)
p441
sL441L
VBIC Great Erase Grip Low Odor Dry Erase Marker, Fine Point, Assorted, 36 Dry Erase Markers
p442
sL442L
VSharpie Accent Tank-Style Highlighters, 12 Yellow Highlighters(25005)
p443
sL443L
VTaoTronics TT-BS004 Automatic Sensing and Scan Handheld BarCode Scanner / Reader White, USB Wired, Optical Laser, Long Range
p444
sL444L
VMeadCambridge Limited Action Planner Business Notebook (06064)
p445
sL445L
VWinsome Wood Alden Lap Desk, Flip Top with Drawer, Foldable Legs
p446
sL446L
VPentel Clic Eraser Grip Retractable Eraser, Assorted Colors, 3 Pack  (ZE21BP3-K6)
p447
sL447L
VQuality Park Catalog Envelope, 6 inches x 9 inches, White, Redi-Strip,  100 Envelopes (44182)
p448
sL448L
VFujitsu ScanSnap iX500 Deluxe Bundle Scanner for PC (PA03656-B015)
p449
sL449L
VDome 750 Mileage Log/Expense Record, 3.5 x 6.5 Inches, Logs 324 Trips (DOM750)
p450
sL450L
VXerox 4200 Business Multipurpose White Paper, 92 Bright, 8-1/2 X 11, 10 Reams/Carton (XER3R2047)
p451
sL451L
VBankers Box SmoothMove Moving Kit, 8 Small Boxes, 6 Medium Boxes, 4 Rolls Bubble Wrap, 1 Roll Packing Tape and 1 Marker (7716301)
p452
sL452L
VMead Durable D-Ring View Binder, 1 Inch, Red (W465-14-1797PP) - Pack of 4
p453
sL453L
VAvery PocketTabs, 5.125 x 6 Inches, CD Size, Lime and Blue, 5 per pack (16362)
p454
sL454L
VPaper Mate 70501 Pink Pearl Premium Erasers, Large, 3-Pack
p455
sL455L
V3M Scotch 3/4-Inch Scrapbooking Tape
p456
sL456L
VLD &copy; Canon PGI225 &amp; CLI226 Compatible Set of 14 Ink Cartridges: 4 Pigment Black PGI225, 2 each of CLI226 B/C/M/Y/G
p457
sL457L
VEpson Premium Presentation Paper MATTE (8.5x11 Inches, 50 Sheets) (S041257)
p458
sL458L
VCross Ballpoint Pen Refill, Medium Blue, 2 per Card (8511-2)
p459
sL459L
VHP 61XL CH564WN#140 Tri-Color Ink Cartridge
p460
sL460L
VStanley  Bostitch Electric Full Strip 25 Sheet Capacity Stapler  Impulse Drive(TM) 25.  (02210)
p461
sL461L
VCanon PIXMA iP4700 Premium Inkjet Photo Printer (3742B002)
p462
sL462L
VBIC Round Stic Ballpoint Pens, 1.0 mm, Red,  Box of 12 (GMS11-Red)
p463
sL463L
VFellowes Powershred W-11C 11 Sheet Cross-Cut Shredder (3103201)
p464
sL464L
VPentel GraphGear 500 Automatic Drafting Pencil Brown (PG523E)
p465
sL465L
VCanon Pixma Pro9000 Professional Large Format Inkjet Printer (9995A001)
p466
sL466L
VFellowes I-Spire Series Wrist Rocker, White (9314801)
p467
sL467L
VCompatible Ink Cartridge Replacement for Canon PGI225 and CLI226 (1 Large Black 1 Small Black 1 Cyan 1 Magenta 1 Yellow) 5 Pack
p468
sL468L
VBrother QL-570 Professional Label Printer
p469
sL469L
VFive Star Zipper Binder Plus Multi Access File, 2-Inch Capacity, 13.75 x 12.12 x 3.5 Inches, Blue (72188)
p470
sL470L
VFiskars Recycled 12-Inch Bypass Trimmer (01-005452)
p471
sL471L
VBrother PT-2700 Desktop Labeling System (Silver/Black)
p472
sL472L
VSwingline Rubber Finger Tips, Size 11 1/2, Medium, 12/Box (54035)
p473
sL473L
VPanasonic KX-TG6643B DECT 6.0 Cordless Phone with Answering System - 3 Handsets - Black
p474
sL474L
VAvery Easy Peel Mailing Labels for Ink Jet Printers, 1 x 2-5/8 Inches, Clear, Pack of 300 (18660)
p475
sL475L
VTI-36X Pro Scientific Calculator
p476
sL476L
VALEENES 15599 All Purpose Glue, 8-Ounce
p477
sL477L
VAcco Metal Book Rings, 1in Diameter, 100 Rings Per Box (ACC72202)
p478
sL478L
VEpson WorkForce 320 Color Inkjet All-in-One (C11CB79201)
p479
sL479L
VPENCIL,VELCTY 0.9MM,4 Pack,BK
p480
sL480L
VHP Q2509A Glossy Everyday Photo Paper, 8.5 x 11 inches (100 Sheets)
p481
sL481L
V3M Mouse Pad with Gel Wrist Rest, Daisy Design (MW308DS)
p482
sL482L
VEpson Artisan 1430 Wireless Wide-Format Color Inkjet Printer (C11CB53201)
p483
sL483L
VAvery Quarter-Fold Greeting Cards for Inkjet Printers, 4.25 x 5.5 inches, White, Pack of 20 (3266)
p484
sL484L
VPentel Energel Retractable Roller Ball, 0.7 mm Line Size, Chrome Barrel, Black (BL407-A)
p485
sL485L
VCanon PIXMA MX350 Wireless Office All-in-One Printer (4205B002)
p486
sL486L
VQuartet Magnetic Dry-Erase Board, 17 x 23 Inches, Frame Color May Vary (21-580643Q)
p487
sL487L
VEpson Artisan 725 Color Inkjet All-In-One (C11CA74201)
p488
sL488L
VAleratec DVD CD Shredder XC2
p489
sL489L
VHP No. 61 Ink Cartridge,Twin Pack, Black
p490
sL490L
VCanon 1899B002 PG-30 Ink Cartridge-Black
p491
sL491L
VAmazonBasics 24-Sheet Cross-Cut Paper, CD, and Credit Card Shredder with Pullout Basket
p492
sL492L
VCanon CanoScan 9000F Color Image Scanner
p493
sL493L
VQuality Park Reveal-N-Seal Envelope, #10, 4-1/8 x 9.5 Inches, White, 40 Envelopes (67012)
p494
sL494L
V3M Foam Wrist Rest , Black, Antimicrobial Product Protection (WR209MB)
p495
sL495L
VCanon PIXMA MG7120 Wireless Color Photo All-In-One Printer, Mobile Smart Phone and Tablet Printing, Black
p496
sL496L
ViCraze Adjustable Vented Laptop Table Laptop Computer Desk Portable Bed Tray Book Stand Multifuctional &amp; Ergonomics Design Dual Layer Tabletop (Black)
p497
sL497L
VAlera Elusion Series Mesh Mid-Back Multifunction Chair, Black
p498
sL498L
VHP 85A Original Toner Cartridge
p499
sL499L
VElmer's P9416 Ultimate High Performance Glue 8-Ounce
p500
sL500L
VPost-it Durable IndexTabs, 1 Inch, Ideal For Binders and File Folders, Assorted Bright Colors, 36 per Dispenser (686-RYBT)
p501
sL501L
VFellowes Binding Machine, Comb, Galaxy 500 with Starter Kit (5218201)
p502
sL502L
VBankers Box R-Kive Heavy-Duty Storage Boxes, Letter/Legal, Woodgrain, 12 Pack (00725)
p503
sL503L
VPost-it&reg; Super Sticky Removable Color Coding Round Labels, 0.75-inch Diameter, Assorted Neon, 1800 per Pack (2700-N)
p504
sL504L
VSmead 100% Recycled Classification Folder, Letter, 2/5 Right Of Center, 2 Dividers, Assorted Colors, 5 Per Pack (14049)
p505
sL505L
V3M Permanent Adhesive File Folder Labels, 0.66 x 3.437 Inches, White, 1500 per Pack (3300-F)
p506
sL506L
VOmas Limited Edition Phoenix Plated Fountain Pen With Diamonds
p507
sL507L
VPrismacolor Premier Colored Woodcase Pencils, 12 Assorted Colors/set
p508
sL508L
VAvery Top Loading Non-Glare Poly Sheet Protectors 100 Count (74102)
p509
sL509L
VINFINITER 100 Red Laser Pointer, Black, Presentation Pointer
p510
sL510L
VEpson Stylus Photo R3000 Wireless Wide-Format Color Inkjet Printer (C11CA86201)
p511
sL511L
VElsa L Pleather Magazine Organizer Rec Stitch (34590)
p512
sL512L
VCanon 0615B013 PG-40 Black Twin Pack
p513
sL513L
VID Card Reel, Belt Clip, Extends up to 30&quot;, Black/Chrome (Sold Individually) BAU68814 Category: Name Badges and Badge Labels
p514
sL514L
VAcademie Wirebound Sketch Diary, 9 x 6 Inches 70 Sheets (54028)
p515
sL515L
VQuality Park Clasp Envelopes, 5 x 7.5 - Inch, Brown Kraft, Box of 100 (37835)
p516
sL516L
VCisco Small Business PAP2T-NA Internet Phone Adapter with 2 VoIP Ports
p517
sL517L
VCardinal by TOPS Products XtraValue Slant-D Ring Binder, 3 Inch Capacity, Black (XV632)
p518
sL518L
VBankers Box SmoothMove Dish Box With Double Wall Construction, 18 x 18 x 28 Inches, 4 Pack (7711101)
p519
sL519L
VPentel Graph Gear 1000 Automatic Drafting Pencil, 0.5mm Lead Size, Brushed Metal Barrel, 1 Each (PG1015A)
p520
sL520L
VSafco Products Vue Mesh Extended-Height Chair, Black, 3395BL
p521
sL521L
VPost-it Flags with On-the-Go Dispenser, Assorted Primary Colors, 1/2-Inch Wide, 100/Dispenser, 1-Dispenser/Pack
p522
sL522L
VHP Office Quickpack Paper, 92 Brightness, 8.5 x 11 Inches, 2500 Sheets (11210-3)
p523
sL523L
VScotch Thermal Laminator Combo Pack, Includes 20 Laminating Pouches, 9 Inches x 11.4 Inches (TL901SC)
p524
sL524L
VPaper Mate Mates 1.3mm Mechanical Pencils, 8 Colored Barrel Mechanical Pencils (1862168)
p525
sL525L
VF-301 Retractable Ballpoint 0.7mm Black 9pk (11169)
p526
sL526L
VOxford Twin Pocket Dark Blue Leatherette-Grained Portfolios 25 Count (57538)
p527
sL527L
VHP 60XL CC641WN#140 Ink Cartridge-Black
p528
sL528L
VHP 35A Black Original LaserJet Toner Cartridge
p529
sL529L
VX-ACTO SharpX Principal Electric Pencil Sharpener, Black/Silver (1773)
p530
sL530L
VCanon PIXMA PRO-100 Color Professional Inkjet Photo Printer
p531
sL531L
VInateck&reg; Bluetooth Wireless Barcode Scanner (Laser Wireless Bluetooth &amp; USB2.0 Wired) USB Rechargeable Barcode Bar-code Handscanner Operation with iPad Air/mini, iPhone, Android Phones, Tablets or Computers, Support Win7, Win8.1, iOS7, Mac OS X 10.8.4 or above, Linux - USB Charging
p532
sL532L
VLetter Slitter Hand Letter Opener w/Concealed Blade, 2 1/2&quot;, White, 3/Pack
p533
sL533L
VHP 920XL Four Pack Black &amp; Colors Ink Cartridge Set -Black/Yellow/Cyan/Magenta
p534
sL534L
VHouse of Doolittle Academic Weekly Planner, 8.5 x 11 Inch 12 Months August 2011 to July 2012 Black Planner, Recycled, Made in the USA (HOD257202)
p535
sL535L
VExtra Large heavy-duty folding Cart with matching Liner -Basket Cart -Jumbo size
p536
sL536L
VNite Ize S-Biner KeyRack
p537
sL537L
VUniversal Economy Sheet Protectors Economy Letter 200/Box, UNV-21127
p538
sL538L
V3M Scotch Mounting Tape, .5-Inch by 75-Inch (110)
p539
sL539L
VBoard Dudes 18&quot; x 22&quot; Magnetic Dry Erase CorX Board (13467UA-4)
p540
sL540L
VMead Class Supplies Wall Storage, Blue (72344)
p541
sL541L
VLogitech 2.4 GHz Cordless Presenter (Black)
p542
sL542L
VSwingline 747 Business Manual Desktop Stapler, Antimicrobial, 20 Sheet Capacity, Black, (S7074732)
p543
sL543L
VSharpie Fine-Tip Permanent Marker, 24-Pack Assorted Colors
p544
sL544L
V3M 77 Super Multipurpose Adhesive Aerosol, Clear 16.75 Oz. Aerosol Can
p545
sL545L
VUniversal&reg; White Melamine Dry Erase Boards with Aluminum Frame
p546
sL546L
VFellowes 58024 Medium Mouse Pad (Black)
p547
sL547L
VBrother MFC-495CW Inkjet Color Multifunction Center with Wireless Networking for the Small Office/Home Office
p548
sL548L
VFellowes PowerShred 99Ci 100% Jam Proof 17-Sheet Cross-Cut Shredder (3229901)
p549
sL549L
VFellowes Powershred 59Cb Cross-Cut Shredder with Jam Blocker Technology
p550
sL550L
VTexas Instruments TI-30X IIS 2-Line Scientific Calculator, Black
p551
sL551L
VSafco Products Onyx Mesh Desk Organizer, 2 Horizontal and 6 Upright Sections, Black, 3255BL
p552
sL552L
VCross Ballpoint Refill, Medium Black, 2 per card (8513-2)
p553
sL553L
VPanasonic KXTG7872S Dect_6.0 2-Handset Landline Telephone
p554
sL554L
VCanon 2923B002 LiDE100 Color Image Scanner
p555
sL555L
VCanon P23-DH V 2 color mini-Desktop Printing Calculator
p556
sL556L
VPaper Mate Arrowhead Pink Cap Erasers (73015), Pack of 144
p557
sL557L
VTyke Supply Dual LCD Monitor Stand desk clamp holds up to 24&quot; lcd monitors
p558
sL558L
VColumbian CO298 Greeting Card Envelopes, 5-3/4&quot; x 8-3/4&quot; A9 White (Box of 100)
p559
sL559L
VAT&amp;T 210 Corded Phone, Black, 1 Handset
p560
sL560L
VScotch DP-1000RF6 Packaging Tape, 1.88 Inches x 900 Inches (6-Pack)
p561
sL561L
VHP 940XL /4-Pack Set/ for HP 940XL &amp; 940 for use in HP Officejet pro 8000, All in One 8500 &amp; Premier-Black/Cyan/Magneta/Yellow
p562
sL562L
VJOTO Premium Ultra Clear Screen Protector Film for ASUS MeMO Pad HD 7-Inch Tablet - Lifetime Replacement Warranty (3 Pack)
p563
sL563L
VCanon PIXMA MG5320 Wireless Inkjet Photo All-in-One Printer (5291B019)
p564
sL564L
VAdvantus Plastic Head Push Pins, Steel Point, Assorted Colors, 100 Per Box (CPOA)
p565
sL565L
VSouthworth Exceptional Resume Paper, 100% Cotton, 32 lb, white, 100 Count (RD18CF)
p566
sL566L
VAssorted All Occasion Greeting Cards 30 Pack
p567
sL567L
VPalomino Blackwing 602 - 12 Count
p568
sL568L
VBrother HL-2140 Laser Printer
p569
sL569L
VOBi100 VoIP Telephone Adapter and Voice Service Bridge
p570
sL570L
VPaper Mate Flair Point-Guard Porous Point Pens, 12 Colored Pens
p571
sL571L
VFive Star Zipper Binder Plus Multi Access File, 2-Inch Capacity, 13.75 x 12.12 x 3.5 Inches, Blue (72188)
p572
sL572L
VBrother Drum Unit DR420 - Retail Packaging
p573
sL573L
VRolodex Mesh Collection Stacking Sorter, 5-Section, Black (22141)
p574
sL574L
V3M Tilt-Adjustable Mouse Pad and Gel Wrist Pad, Antimicrobial Product Protection (WR421LE)
p575
sL575L
VBIC Great Erase Grip &quot;Pocket&quot; Dry Erase Marker, Fine Point, Assorted, 6 Dry Erase Markers (GDEP61-Ast)
p576
sL576L
VSharp Electronics EL243SB 8-Digit Twin Powered Calculator
p577
sL577L
VCanon PIXMA MP560 Wireless Inkjet All-In-One Photo Printer (3747B002)
p578
sL578L
VEpson Expression Home XP-400 Wireless All-in-One Color Inkjet Printer, Copier, Scanner.  Prints from Tablet/Smartphone. AirPrint Compatible (C11CC07201)
p579
sL579L
VSharpie Retractable Ultra Fine Point Permanent Markers, 8 Colored Markers (1742025)
p580
sL580L
VQuartet Prestige Colored Cork Bulletin Board, 3 x 2 Feet, Graphite Finish Frame (B243G)
p581
sL581L
VHP 45/23 Ink Cartridge in Retail Packagings, Combo Pack
p582
sL582L
VUniversal 31312 3/8-Inch Gemstone Color Push Pins (100 per Pack)
p583
sL583L
VNoodlers Ink 3 Oz Borealis Black
p584
sL584L
VRolodex Low-Profile Business Card Book, 96-Card, Black (76659)
p585
sL585L
VPilot Namiki Falcon Collection Fountain Pen, Black with Gold Accents, Soft Fine Nib (60152)
p586
sL586L
VFive Star Magnetic Storage Pocket, Neoprene, Black/Blue (72250)
p587
sL587L
VLD &copy; Xerox Phaser 6130 / 6130N Compatible 106R01278 Cyan High Yield Laser Toner Cartridge
p588
sL588L
VEpson Stylus NX420 Color Ink Jet All-in-One (C11CA80201)
p589
sL589L
VSamsung SCX-3405FW Wireless Monochrome Printer with Scanner, Copier and Fax
p590
sL590L
VWeighmax 2822-35 lbs capacity, Blue, postal shipping scale
p591
sL591L
VScotch Cushion Wrap 7953, 12 Inches x 175 Feet
p592
sL592L
VEpson Stylus NX115 All-in-One (C11CA46212)
p593
sL593L
VPilot MR Animal Collection Fountain Pen, Matte Blue with Leopard Accent, Medium Nib, Black Ink (91133)
p594
sL594L
VCanon imageCLASS LBP6670dn Laser Printer
p595
sL595L
VElmer's Washable No-Run School Glue, 7.625 oz,  1 Bottle (E308)
p596
sL596L
VFloortex Ultimat Polycarbonate Chair Mat for Plush Pile Carpets More Than 1/2 Inch Thick, Clear 60 x 48 Inches, Rectangular (1115227ER)
p597
sL597L
VHON VL700 Series Mid-back Chair with Adjustable Arms for Office or Computer Desk,Black
p598
sL598L
VQuartet EnduraGlide Fine Tip Dry-Erase Markers, Assorted Colors, 4 Pack (5001-10M)
p599
sL599L
VAvery Top-Loading Diamond Clear Poly Sheet Protectors, 100 Count (74100)
p600
sL600L
VRhodia Dot Pad Black 6 x 8.25 Notebook - R16559
p601
sL601L
VAurora  AU1215XB 31215 12-Sheet Medium-Duty Cross-Cut Shredder
p602
sL602L
VACCO Economy #1 Paper Clips, Non-skid, Size #1, 10 Pack (A7072385)
p603
sL603L
VBIC Velocity Mechanical Pencil, Refillable, Thick Point (0.9 mm), 12 Pencils
p604
sL604L
VPanasonic Dect 6.0 Black Cordless Phone with Answering Machine and ChoiceMail (KX-TG7432B)
p605
sL605L
VPilot G2 Retractable Premium Gel Ink Roller Ball Pens, Fine Point, Assorted Colors,  8 Pack (31128)
p606
sL606L
VSmead Manila Folder, Letter Size, 11 Point, 1/3-Cut Tab, 100 per Box (10330)
p607
sL607L
VVTech CS6419-2 DECT 6.0 Cordless Phone, Silver/Black, 2 Handsets
p608
sL608L
VCasio SL-300SV Solar Powered Standard Function Calculator
p609
sL609L
VXerox XDM31255M-WU DocuMate 3125 Color Sheetfed Scanner for Documents and Plastic Cards converting them to Digital Files, 25ppm and 44ipm with One Touch Technology
p610
sL610L
VHP 125A Black Original LaserJet Toner Cartridge
p611
sL611L
VPendaflex 4152X2 Extra Capacity 1/5-Tab Hanging Folders with Box Bottoms, Standard Green (25-Pack)
p612
sL612L
VQuartet Kapture Digital Flipchart Starter Kit, 1 Pad, Pen, USB &amp; Software, Bluetooth (23700)
p613
sL613L
VNational Hardware V337 Wall Door Stops in Almond
p614
sL614L
VMead Kindergarten Problem Solving Workbook, 10 x 8-Inches, 96 Pages (48026)
p615
sL615L
VPanasonic KX-TG6582T DECT 6.0 PLUS Link-to-Cell via Bluetooth Cordless Phone with Answering System, Metallic Black, 2 Handsets
p616
sL616L
VSnap-N-Store DVD Storage Boxes, 15.5 x 5.5 x 7.625 Inches, Black, 2 Boxes per Pack (SNS01618)
p617
sL617L
VCanon Ink PGI-250 PGBK XL Individual Ink Tank
p618
sL618L
VCotton Butcher's Twine - 185 feet
p619
sL619L
VX-Acto Model KS Table- or Wall-Mount Pencil Sharpener (1031)
p620
sL620L
VColumbian CO598 Grip-Seal Invitation/Greeting Card Envelopes A2, 4-3/8&quot; x 5-3/4&quot; - White (Box of 100)
p621
sL621L
VLexmark MS310dn Mono Laser Printer
p622
sL622L
VHP 564XL CB321WN#140 Ink Cartridge-Black
p623
sL623L
VOoma Scout (to use with Ooma Hub VoIP Phone Device)
p624
sL624L
VEpson B11B190011 WorkForce GT-1500 Document Scanner
p625
sL625L
V3M Scotch Packaging and Mailing Tape, 1.88-Inch by 800-Inch, 6-Pack (347)
p626
sL626L
VVTech CS6229-3 DECT 6.0 Cordless Phone, Silver/Black, 3 Handsets
p627
sL627L
VCanon PIXMA iP4820 Premium Inkjet Photo Printer (4496B002)
p628
sL628L
VScotch Box Sealing Tape Dispenser H180, 2 in
p629
sL629L
VLivescribe 8.5 x 11 Single Subject Notebook #1-4 (4-pack)
p630
sL630L
VFolding Shopping Cart - Versacart Utility Cart - Transport Up to 120 Pounds (Water-Resistant Heavy Duty Canvas)
p631
sL631L
VCanon Photo Paper Pro Platinum, 8 x 10 Inches, 20 Sheets (2768B019)
p632
sL632L
VUline H-150 2&quot; Hand-Held Industrial Side Loading Tape Dispenser
p633
sL633L
VBrother Printer MFC-L8850CDW Wireless Color Laser Printer with Scanner, Copier and Fax
p634
sL634L
VHP 920XL Black Officejet Ink Cartridge
p635
sL635L
VAvery Printable Two-Side Clean-Edge Business Cards for Laser Printers, White, Pack of 200 (05871)
p636
sL636L
V600 ml HP Printer 920 XL 564 XL Cartridge Ink Refill Kit Color- Black with 4 refill syringe
p637
sL637L
VScotch&reg; Packaging Tape Hand Dispenser DP300-RD
p638
sL638L
VSharpie Stainless Steel Pen Grip Fine Point Black Ink Pen (1800702)
p639
sL639L
VEstes Taser Rocket Launch Set
p640
sL640L
V36 rolls 2&quot; x 110 yds * TOP QUALITY sealing tape 2X110
p641
sL641L
VAccuteck ShipPro 110lbs x 0.1 oz. Digital Shipping Postal Scale, Black (W-8580-110-Black)
p642
sL642L
VQuartet Magnetic Push Pins, High Power Magnets, Bright Colors, 10 Pack (MPPCB)
p643
sL643L
VFellowes EXL45-2 Small-Size Laminating System
p644
sL644L
VHP OfficeJet Pro 8620 Wireless Color Photo Printer with Scanner, Copier and Fax (A7F65A#B1H)
p645
sL645L
VSemikolon Sticky Tab Markers, Assorted Colors (5100002)
p646
sL646L
VMead Spiral Notebook, 1-Subject, 70-Count, Wide Ruled, Light Blue (05510)
p647
sL647L
VECR4Kids School Stack Chair with Chrome Legs and Ball Glides, 16&quot;, Blue, 6-Pack
p648
sL648L
VPlantronics HL10 Handset Lifter
p649
sL649L
VSchool Smart Vertical Pencil Sharpener - 6 x 4 inches - Electric
p650
sL650L
VSharpie Accent Gel Highlighters, Colored, 3 Assorted Highlighters (1780475)
p651
sL651L
VJ Herbin 1670 Anniversary Red Fountain Pen Ink
p652
sL652L
VSafco Products Zenergy Ball Chair, Red
p653
sL653L
VFellowes I-Spire Series Document Lift (9311501)
p654
sL654L
VBrother TN-560 High-Yield Toner Cartridge - Retail Packaging
p655
sL655L
VPost-it Pop-up Notes, 3 x 3-Inches, Assorted Pink Colors, 6-Pads/Pack
p656
sL656L
V12 Pack Compatible Brother LC-61 Cartridges - 3 each of Black/ Cyan/ Magenta/Yellow
p657
sL657L
VSmead Translucent Slash Jacket, 3 Hole Punched, Letter Size, Clear, 5 per Pack (89506)
p658
sL658L
VSparco Stand,Mntr/Prtr,Mesh,Blk
p659
sL659L
VCanon Office Products PG-240XL/CL-241XL with Canon GP502 Glossy Photo Paper - Combo Pack Ink
p660
sL660L
VSamsung SL-M2070FW/XAA Wireless Monochrome Printer with Scanner, Copier and Fax
p661
sL661L
VZowie G-TF &quot;Spawn&quot; Cloth E-Sport Mouse Pad
p662
sL662L
VPost-it Super Sticky Removeable Label Roll, 1 x 700 Inches, Green (2600-G)
p663
sL663L
V100XL Color High Yield Return Prog Ink Cart Tri-pk- Cyan Magenta
p664
sL664L
VStaedtler Rally Graphite #2 Pencil, 12-Each (9122-2B12)
p665
sL665L
VX-Acto School Pro Heavy-Duty Electric Sharpener (1670)
p666
sL666L
VLINKYO&reg; Compatible Brother DR420 Black Drum Unit
p667
sL667L
VAvery Sticky Notes, Perforated, 4 x 6 Inches, Citrus Colors, Ruled, 135 Sheets (22553)
p668
sL668L
VThermal Laminating Pouches, 3.7 Inches x 5.2 Inches, 20 Pouches (TP5902-20)
p669
sL669L
VEpson LabelWorks LW-600P App-enabled, Portable Label Printer with Bonus 1&quot; (24mm) Tape Cartridge
p670
sL670L
VHP Photosmart C410a Premium Fax Wireless e-All-in-One (CQ521A#B1H)
p671
sL671L
VScotch(R) Pop-Up Tape Dispenser and Refills (96-94 PK)
p672
sL672L
VMotorola IT6 DECT 6.0 Digital Cordless Home Phone with Answering Machine
p673
sL673L
VTexas Instruments Nspire CX CAS Graphing Calculator
p674
sL674L
VXerox Phaser 6130/N Color Laser Printer
p675
sL675L
VHP Officejet 7110 Wide Format ePrinter
p676
sL676L
VKodak i2900 Scanner
p677
sL677L
VBIC Round Stic Ball Pens, Medium Point, Red, 10 Pens
p678
sL678L
VFellowes Binding Machine, Comb, Star+ (5006501)
p679
sL679L
VAvery Textured Print-To-The-Edge Arched Labels, Laser Printers, 3 x 2.25-Inches, White, Pack of 90 (22809)
p680
sL680L
VKodak 1163641 Ink Cartridge 10B - Black
p681
sL681L
VWilson Jones Big Mouth Filer, Vertical Orientation, Dark Blue (W68583)
p682
sL682L
V100 6x9 WHITE POLY MAILERS ENVELOPES BAGS 6x9
p683
sL683L
VSharpie 37001 Ultra Fine Point Permanent Markers, Black (Box of 12)
p684
sL684L
VPaper Mate InkJoy 300 RT Retractable Medium Point Ballpoint Pens, Assorted Colors, 8 Pack (1781564)
p685
sL685L
V3M 1.5&quot; See-Through Book Repair Tape
p686
sL686L
VEpson WorkForce Pro WP-4020 Wireless Color Inkjet Printer (C11CB30201)
p687
sL687L
VEpson B11B207201 Epson Perfection V37 Color Photo Scanner (B11B207201) Scanner
p688
sL688L
VAvery Tickets with Tear-Away Stubs, 1.75 inches x 5.5 inches, Matte White, Pack of 200 (16154)
p689
sL689L
VWilson Jones Recycled Bliss Dividers, 5-Tab, Assorted Designs (W31504)
p690
sL690L
VParker Jotter Pen, Stainless Steel, Medium Point, Black Ink
p691
sL691L
VVTech CS6219-2 DECT 6.0 Cordless Phone, Silver/Black,  2 Handsets
p692
sL692L
VHP Deskjet 6940 Color Printer (C8970A#B1H)
p693
sL693L
VOffice Impressions Kraft Clasp Envelopes, 9 X 12 Inches, 28 Lb, Light Brown, 100 per Box (82302)
p694
sL694L
VAmazonBasics 8 Digit Dual Power Calculator -Silver
p695
sL695L
VTiconderoga Emphasis Fluorescent Highlighters, Pocket Style with Clip, Chisel Tip, Pack of 6 Markers, Assorted Colors (48008)
p696
sL696L
VAvery White Repositionable Address Labels for Inkjet Printers, 1 x 2.625 Inches, Box of 750 (58160)
p697
sL697L
VAvery Hole Reinforcements, 1/4  Diameter, White, 1000/Pack, PK - AVE05720
p698
sL698L
VFujitsu ScanSnap S1300i Instant PDF Sheet-Fed Mobile Document Scanner
p699
sL699L
VEpson WorkForce B11B194011 Pro GT-S50 Document Scanner
p700
sL700L
VSharpie 37172 Ultra Fine Point Permanent Marker, Assorted Colors, 12-Pack
p701
sL701L
V10 Pack: PGI220 (2) CLI221B (2) CLI221C (2) CLI221M (2) CLI221Y (2) Non OEM
p702
sL702L
VBrother High Yield Toner Cartridge TN450, Black
p703
sL703L
VAvery Shipping Labels for Ink Jet Printers with TrueBlock Technology, 3.33 x 4 Inches, White, Pack of 150 (08164)
p704
sL704L
VHP Deskjet 3050 All-in-One Printer (CH376A#B1H)
p705
sL705L
VPrismacolor Premier Soft Core Colored Pencils, 132 Colored Pencils (4484)
p706
sL706L
VBusiness Name Card Holder Stainless Steel Case
p707
sL707L
VSharpie Permanent Markers, Ultra Fine Point, Black, 2 Pack (37161)
p708
sL708L
VCommand Medium Hooks, Clear, 2-Hook
p709
sL709L
VPendaflex Essentials File Folders, 1/3 Cut, Top Tab, Letter, Manila, 100 Per Box, (752 1/3)
p710
sL710L
VOfficemate Micro Size Binder Clips, Black, 100 per Tub (31030)
p711
sL711L
VPost-it Greener Notes, 3 x 3-Inches, Sunwashed Pier Collection, 6-Pads/Pack
p712
sL712L
VPost-it&reg; Super Sticky Removable Label Pads, Assorted Neon Colors and Sizes, 16 Pads, 400 Labels per Pack (2900-M16)
p713
sL713L
VPanasonic KX-TG6671B DECT 6.0 Corded/Cordless Phone with Digital Answering System, Black, 1 Handset
p714
sL714L
VCanon PC 170 Personal Copier
p715
sL715L
VAvery Write-On Tabs, 1.75 Inches, 48 Tabs (16143)
p716
sL716L
VNumber Stories WorkBook, Stage Two, 10 x 8 Inches, 40 Count (48022)
p717
sL717L
VPilot Dr. Grip Retractable Ballpoint Pens, Medium Point, Black Barrel with Black Ink, Single Pen (36100)
p718
sL718L
VHP 60 Tri-Color Original Ink Cartridge
p719
sL719L
VAmazonBasics Remanufactured  Drum Unit Replacement for Brother DR520
p720
sL720L
VCartritech compatible Brother TN450 / TN420 High Yield Black Toner Cartridge for Brother DCP-7060D DCP-7065DN IntelliFax-2840 IntelliFAX-2940 HL-2220 HL-2230 HL-2240 HL-2240D HL-2270DW HL-2275DW HL-2280DW MFC-7240 MFC-7360N MFC-7365DN MFC-7460DN MFC-7860DW
p721
sL721L
VSentrySafe CHW20221 Medium Chest Safe, Charcoal Gray
p722
sL722L
Vbasyx by HON HVL251 Task Chair for Office or Computer Desk, Black Fabric
p723
sL723L
VCanon CL-41 Color FINE Ink Cartridge
p724
sL724L
V100 - 7.5x10.5 WHITE POLY MAILERS ENVELOPES BAGS
p725
sL725L
VStanley Bostitch Premium Standard Staples, 1/4 Inch Silver, 5,000 per box (SBS191/4CP)
p726
sL726L
VHP Inkjet Paper, 97 Bright, White, 500 Sheets/Ream, 8 1/2&quot; x 11&quot;, 24 lb.
p727
sL727L
VDuck Brand Kraft Corrugated Shipping Boxes, 14&quot; x 14&quot; x 14&quot;, Brown, 6-Pack (280349)
p728
sL728L
VPaper Mate Mirado Black Warrior Cedar Pencils, 8 #2 Pre-Sharpened Pencils(58494)
p729
sL729L
VWestcott Non-Shatter Ruler, Clear, 12 Inches,(13862)
p730
sL730L
VHP 56/57 C9321FN#140 Tri-Color Ink Cartridge, Combo Pack-Black
p731
sL731L
VBadge Holder With Loop
p732
sL732L
VScotch TP5851-20 Thermal Laminating Pouches, 2.3 Inches x 3.7 Inches, 20 Pouches
p733
sL733L
VSentrySafe H4300 Fire-Safe Waterproof Security File, 0.7 Cubic Feet, Silver Gray
p734
sL734L
V54055 Bookend
p735
sL735L
VSmead Erasable SuperTab File Folders, 1/3-Cut Tabs, Letter, Manila, 24 per Pack (10380)
p736
sL736L
VBrother Printer DCP7065DN Monochrome Laser Multi-Function Copier
p737
sL737L
VSwingline SmartCut EasyBlade Plus Rotary Paper Trimmer, 12 Inch, 15 Sheet Capacity, Gray and Green (8912)
p738
sL738L
VBrother TN450 Compatible Toner Cartridge for use with Brother HL-2220, HL-2230, HL-2240, HL-2240D, HL-2270DW, HL-2280DW, MFC-7240, MFC-7360N, MFC-7460DN, MFC-7860DW, DCP-7060D, DCP-7065DN, IntelliFax-2840, IntelliFAX-2940 Printers - Black
p739
sL739L
V3/16&quot; x 175ft x 12&quot; BUBBLE WRAP ROLL * SMALL BUBBLES
p740
sL740L
VCanon Office Products IP8720 Wireless Inkjet Photo Printer
p741
sL741L
VDYMO 30323 LaberWriter Standard Shipping Labels for LabelWriter Label Printers, 2 1/8- by 4-inch, White, Roll of 220
p742
sL742L
VBIC Ultra Round Stic Grip Ball Pen, Medium Point, 1.2mm, Blue, 8-Count (GSMGP81-Blu)
p743
sL743L
VHP 61XL AND 61XL COLOR COMBO-Black
p744
sL744L
VCanon imageCLASS MF4150 Laser Duplex P/s/c/f 21PPM Adf
p745
sL745L
VClassic Glow Filler Paper, Wide Ruled,600, MADE IN USA
p746
sL746L
VOxford Ruled Index Cards, 3 x 5 Inches, White, pack of 100
p747
sL747L
VEpson Claria T098120 Hi-Definition 98 High-capacity Inkjet Cartridge-Black
p748
sL748L
VCase-it XLarge Capacity 4-Inch D-Ring Zipper Binder with 5-Tab File Folder, Blue, D-186-BLU
p749
sL749L
VFellowes Powershred 63Cb 10-Sheet Cross-Cut Shredder with Jam Blocker Technology (4600001)
p750
sL750L
VOoma Telo Free Home Phone Service
p751
sL751L
VKodak i2600 Scanner
p752
sL752L
VAvery Sticker Project Paper, White, 8.5 x 11 Inches, Pack of 15 (03383)
p753
sL753L
VHP 96 Twinpack Black Inkjet Print Cartridge with Vivera Ink (C9348FN#140)
p754
sL754L
VCARL Angel-5 Pencil Sharpener, Blue
p755
sL755L
VSharpie King Size Permanent Marker, 12 Black Markers(15001)
p756
sL756L
VQuartet ReWritables Daily Quick List Magnets with Marker, 5 x 8 Inches, 2 Pack (79228)
p757
sL757L
VDYMO 1754488 LabelManager 360D Handheld Label Maker
p758
sL758L
VSwingline ClassicCut Pro 12-Inch Guillotine Trimmer, Desktop, Wood, 15 Sheet (9112)
p759
sL759L
VVTech CS6409 DECT 6.0 Accessory Handset Cordless Phone, Silver/Black, 1 Accessory Handset
p760
sL760L
VEpson B11B198011 Perfection V600 Photo Scanner
p761
sL761L
VBrother TN360 High Yield Toner Cartridge - Black
p762
sL762L
VScotch Color Coding Tape 690 Red, 48 mm x 66 m, Conveniently Packaged (Pack of 1)
p763
sL763L
VFujitsu ScanSnap iX500 Scanner for PC and Mac (PA03656-B005)
p764
sL764L
VCanon I-9900 Photo Printer
p765
sL765L
V20 Pack Compatible Canon CLI-226 , PGI-225 4 Small Black, 4 Cyan, 4 Magenta, 4 Yellow, 4 Big Black for use with Canon PIXMA iP4820, PIXMA iP4920, PIXMA iX6520, PIXMA MG5120, PIXMA MG5220, PIXMA MG5320, PIXMA MG6120, PIXMA MG6220, PIXMA MG8120, PIXMA MG8120B, PIXMA MG8220, PIXMA MX712, PIXMA MX882, PIXMA MX892. Ink Cartridges for inkjet printers. By &copy; Blake Printing Supply
p766
sL766L
VPost-it Flags, Assorted Primary Colors, 1/2-Inch Wide, 35/Dispenser, 4-Dispensers/Pack
p767
sL767L
VTOPS Docket Writing Tablet, 5 x 8 Inches, Perforated, Canary, Narrow Rule, 50 Sheets per Pad, 12 Pads per Pack (63350)
p768
sL768L
VQuartet Cork Bulletin Board, 3 x 2 Feet, Black Aluminum Frame (2303B)
p769
sL769L
Vuni-ball 207 Premier Retractable Gel Roller Ball Pen, 1 Black Ink Pen (40108)
p770
sL770L
VVTech SN6197 CareLine DECT_6.0 2-Handset Landline Telephone
p771
sL771L
VWestcott Stainless Steel Office Ruler With Non Slip Cork Base, 18 Inches
p772
sL772L
VBankers Box R-Kive Heavy-Duty Storage Boxes, Letter/Legal, White/Black, 12 Pack (00724 )
p773
sL773L
VDYMO Label Manager LM260P label Printer, Black /Gray (1754490)
p774
sL774L
VTsirtech Cushioned Faux Leather Top, Laptop Lap Desk, Grey - Comfortable Lightweight Plush Material makes Laptop feel weightless
p775
sL775L
VStanley Bostitch Super Pro Glow Commercial Pencil Sharpener (EPS14HC)
p776
sL776L
VHP Officejet 7500A Wide Format e-All-in-One E910a (C9309A#B1H)
p777
sL777L
VQuartet Magnetic Dry-Erase Board, 17 inch x 23 inch, Black or Wood Finish Frame (Frame Choice Not Available)(MWDW1723M)
p778
sL778L
VLamy Safari Converter Z24
p779
sL779L
VWrite Bros. Stick Ballpoint Pens, Medium Point, Blue Ink, 60-Pack
p780
sL780L
VUSB Automatic Barcode Scanner Scanning Barcode Bar-code Reader with Hands Free Adjustable Stand (Black)
p781
sL781L
VAvery Foil Mailing Labels, 3/4 x 2-1/4, Gold, 300/Pack, PK - AVE8987
p782
sL782L
VSteelSeries 4HD Professional Gaming Mouse Pad (Black)
p783
sL783L
VAvery Sticky Notes, 3 x 3 Inches, Assorted Pastel Colors, 200-Sheets (22541)
p784
sL784L
V3M Mechanically Adjustable Monitor Arm (MA100MB)
p785
sL785L
VFellowes Hot Laminating Pouches, Letter, 3 mil, 100 Pack (52454)
p786
sL786L
VBankers Box File Storage Box with Lift-Off Lid, Letter/Legal, 12 x 10 x 15 Inches, White, 4-Pack (0070329)
p787
sL787L
VKensington K72353US Wireless Presenter Pro with Green Laser Pointer
p788
sL788L
VTechni Mobili Mobile Laptop MDF Cart with Storage, Woodgrain, 22-Inch W by 16-Inch D by 44-Inch H
p789
sL789L
VSmead 2-Way Mini Organizer, 12 Pockets, Alpha and Monthly, 9-3/4&quot;W x 4-1/2&quot; H, Flap with Elastic Closure, Blue with Manila Interior (70636)
p790
sL790L
VPolder 90401-91H 2-Step Mini-Stool
p791
sL791L
VQuartet Push Pins, 1-Inch, Assorted Colors, 30 Pack (27954)
p792
sL792L
VScotch Box Sealing Tape Dispenser H122, 2 in
p793
sL793L
VPaper Mate 4912431PP Refill for Aspire, PhD, PhD Ultra Ballpoint, Medium, Blue Ink, 2/Pack
p794
sL794L
VTwin Draft Guard Extreme Door Guard
p795
sL795L
VHewlett Packard OJPRO8100 Wireless Color Printer
p796
sL796L
VNorpro 942 Cotton Twine
p797
sL797L
VWilson Jones Ultra Duty Round Ring View Binder with Extra Durable Hinge, 1-Inch, White (W87902PP2)
p798
sL798L
VWolverine F2D 35mm Film to Digital Image Converter with 2.4-Inches LCD and TV-Out
p799
sL799L
VKodak EasyShare 5300 All-in-One Printer Print, Copy, and Scan (8804056)
p800
sL800L
VBIC Round Stic Ball Pen, Fine Point, 0.8mm, Blue, 12 Pens (GSF11-Blu)
p801
sL801L
VHP 564XL CN684WN#140 Ink Cartridge 2-PACK in Retail Packaging-Black
p802
sL802L
VWilson Jones View-Tab Transparent Dividers, 8-Tab Set, Square Multicolor, 5 Pack (5 sets of 8-Tab Dividers) (W55567)
p803
sL803L
VSharpie 1754464 Accent Liquid Pen-Style Highlighter, Fluorescent Pink, 12-Pack
p804
sL804L
VPost-it Pop-up Notes Dispenser for 3 x 3-Inch Notes, Black Purse, Includes Green Post it
p805
sL805L
VCanon PIXMA MX870 Wireless Office All-in-One Printer (4206B002)
p806
sL806L
VFellowes Laminator Saturn2 125, 12.5-Inch  with 10 Pouches (5727701)
p807
sL807L
VGBC CombBind C20 Binding System, 20 Sheet Punch Capacity, 320 Sheet Binding Capacity, Black (7706172)
p808
sL808L
VCasio MS-80S Standard Function Desktop Calculator
p809
sL809L
VEXPO Dry Erase Board Eraser, Soft Pile, 5 1/8 Width x 1 1/4 Height (81505)
p810
sL810L
VQuartet&reg; Chalkboard, 14&quot; x 14&quot;, Wood Finish Frame (90006)
p811
sL811L
VBrother FAX-575 Personal Fax, Phone, and Copier
p812
sL812L
VHP 61 Black / Color Original Ink Cartridge Combo Pack
p813
sL813L
VFive Star Advance Wirebound Notebook, 5-Subject, 200 College-Ruled Sheets, 11 x 8.5 Inch Sheet Size, Red (72815)
p814
sL814L
VEcolite #2 8.5x12 Kraft Bubble Mailers Padded Envelopes, Pack of 100
p815
sL815L
VFellowes Laminator Callisto 125, 12.5-Inch  with 10 Pouches (5729101)
p816
sL816L
VSamsill 1/2-Inch Round Ring View Speedy Spine Binders, White - 6 Pack (M18117C)
p817
sL817L
VFive Star Flex Hybrid NoteBinder, 1-Inch Capacity, 11.5 x 10.75 x 1.25 Inches, Black (72009)
p818
sL818L
VLePage's USPS All Purpose Packaging Tape, 1.89 x 110 Yards (82210)
p819
sL819L
VPentel EnerGel Deluxe RTX Retractable Liquid Gel Pen, Fine Line, Needle Tip, Black Ink, Box of 12 (BLN75-A)
p820
sL820L
VHI-VISION &reg; 1 Pack Compatible Canon CLI-226, CLI 226, Gray Ink Cartridge Replacement for PIXMA iP4820, PIXMA iX6520, PIXMA MG5320, PIXMA MG5120, PIXMA MG6120 Wireless, PIXMA MG8120 Wireless, PIXMA MX892 Wireless, PIXMA MG6220 Wireless
p821
sL821L
VRolodex Mesh Collection Spinning Desk Sorter, Black (1773083)
p822
sL822L
VBelkin Loft for Macbook
p823
sL823L
VRegency Baker's Twine Cone red and white
p824
sL824L
VRazer Goliathus Alpha Mouse Mat - Precision Control Surface
p825
sL825L
VWestcott TrimAir Guillotine Wood Trimmer with Anti-microbial Protection (15106)
p826
sL826L
VFive Star Reinforced Filler Paper, Wide Ruled, 110 ct (15106)
p827
sL827L
VColumbian CO142 (#10) 4-1/8x9-1/2-Inch Grip-Seal Security Tinted White Envelopes, 45 Count
p828
sL828L
VSamsung Multifunction Xpress SL-M2875FW Wireless Monochrome Printer with Scanner, Copier and Fax
p829
sL829L
VLexmark high yield 100XL ink cartridge-Black
p830
sL830L
VB&amp;R Plastics 101-6 White EZ Foldz Step Stool
p831
sL831L
VFellowes Pulsar 300 Comb Binding Machine (5216601)
p832
sL832L
VEpson PictureMate Print Pack Inkjet Cartridge, 100 Sheets Glossy Photo Paper T5570
p833
sL833L
VTexas Instruments TI-34 MultiView Scientific Calculator
p834
sL834L
VFormaticum Cheese Paper with 15 Adhesive Labels, Package of 15, 11 by 14-Inch
p835
sL835L
VCanon LS-85H Portable Display Calculator
p836
sL836L
VScotch Magic Tape, 3/4 x 1000 Inches, 6-Count Package (810K6)
p837
sL837L
VScotch Postal Wrapping Paper, 30 Inches x 30 Feet (7901)
p838
sL838L
VPost-it Super Sticky Removable Color Coding Labels, 1 Inch x 2 5/8-Inch, Assorted Neon, Laser, 450 Labels per Pack (2700-P)
p839
sL839L
VHON VL404 Managerial Mid-Back Chair with Loop Arms for Office or Computer Desk, Black
p840
sL840L
VSmead Recycled File Jackets, 2-Inch Expansion, Letter Size, Manila, 50 per Box (75470)
p841
sL841L
VAvery White Repositionable Shipping Labels for Inkjet Printers, 2 x 4 Inches, Box of 250 (58163)
p842
sL842L
V12 Pack. Compatible Cartridges for Canon PGI-220 and CLI-221. Includes Cartridges for 4ea PGI-220 Black + 2ea CLI-221 Black + 2ea CLI-221 Cyan + 2ea CLI-221 Magenta + 2ea CLI-221 Yellow.
p843
sL843L
VMagna Cart Elite 2 Hand Truck
p844
sL844L
VBIC 4-Color Grip Ball Pen, Assorted colors, 1ct (MMPGP1-Ast)
p845
sL845L
VRed Embossed Heart Writing Journal - Lined Pages
p846
sL846L
VU. S. Stamp &amp; Sign Century Series &quot;No Soliciting&quot; Sign, 3X9, Black/Silver (4758)
p847
sL847L
VHP Color Laserjet CP1518NI Printer Entry Level Color Laserjet for Us Government
p848
sL848L
VMead #6 3/4 Security Envelopes, 80 Count (75212)
p849
sL849L
VBoise Fireworx Color Copy/Laser Paper, 20 lb, Letter Size (8.5 x 11), Flashing Ivory, 500 Sheets (MP2201-IY)
p850
sL850L
VBankers Box Home Organization, Large Storage Box, 2 Pack (4663701)
p851
sL851L
VCanon PIXMA MX892 Wireless Color Photo Printer with Scanner, Copier and Fax
p852
sL852L
VExpo Non-Toxic Green Whiteboard Cleaner 22 oz Spray Bottle (1752229) (Packaging May Vary)
p853
sL853L
VPanasonic Dect 6.0 Series 4 Handset Cordless Phone System with Answering System (KX-TG1034S)
p854
sL854L
VCanon PGI-5 BK 0628B009 2-Pack Pigment Black Ink Tanks
p855
sL855L
VSakura 58760 5-Piece Gelly Roll Assorted Colors Gold Shadow Pen Set
p856
sL856L
VFellowes Professional Series Compact Keyboard Tray (8018001)
p857
sL857L
VHP LaserJet Pro P1102
p858
sL858L
VMead Weekly Planning Desk Organizer, Green (72312)
p859
sL859L
VAvery Easy Peel Return Address Labels for Inkjet Printers, 0.5 x 1.75 Inches, White, Pack of 2000 (08167)
p860
sL860L
VExpo Seven Piece Low Odor Dry Erase Starter Set (80675)
p861
sL861L
VPhilips WeCall Bluetooth Conference Speaker Phone AECS7000/37
p862
sL862L
VUniversal Shredder Lubricant Sheets, 8-1/2&quot; X 6&quot;, 36 Sheets/Pack
p863
sL863L
VCustom Accessories 91116 Coin Holder
p864
sL864L
VHP 940XL C4909AN#140 Ink Cartridge in Retail Packaging-Yellow
p865
sL865L
VBrother Printer MFCJ6920DW Color Inkjet Multi-Function Center with Scanner, Copier and Fax
p866
sL866L
VPost-it Tabs, 2-Inches, Angled Lined, 4 Assorted Primary Colors, 6-Tabs/Color, 24-Tabs/Pack
p867
sL867L
V3M Precise Mouse Pad, Leatherette Gel Wrist Rest, Antimicrobial Protection, Battery Saving, 9.25 in x 8.75 in, Black
p868
sL868L
VRoyal DC20 Paper Trimmer
p869
sL869L
VThermwell DS2 3-Feet Draft Stop Cloth Seal, Beige
p870
sL870L
VDome 612 Monthly Bookkeeping Record with Tan Cover and 128 Pages, 11 x 8-1/2 Inches, Wirebound
p871
sL871L
VDuck Brand Bubble Wrap Protective Packaging, 12-Inch Wide x 30-Feet Long, Single Roll (393251)
p872
sL872L
VParker Super Quink Permanent Ink Refill, 2-ounce Bottle, Black, (3001100)
p873
sL873L
VScotch Heavy Duty Shipping Packaging Tape, 1.88 Inches x 54.6 Yards, 6-Rolls (3850-6)
p874
sL874L
VZebra F-701 Stainless Steel Ballpoint Retractable Pen, Black Ink, Fine Point, PK - ZEB29411
p875
sL875L
VSamsung ProXpress SL-M3320ND Monochrome Printer
p876
sL876L
VBrother Printer MFC7860DW Wireless Monochrome Printer with Scanner, Copier &amp; Fax
p877
sL877L
VSharpie Accent Retractable Assorted 5 Pack
p878
sL878L
VScotch Magic Tape 6-Roll Value Pack with C38 Black Dispenser, 3/4 x 1000 Inches (810K6C38)
p879
sL879L
VLX Desk Mount LCD Arm
p880
sL880L
VScotch Thermal Laminating Pouches, 4.37 Inches x 6.36 Inches, 20 Pouches (TP5900-20)
p881
sL881L
VHP Pro X451dn Color Photo Printer
p882
sL882L
VSwingline ProStyle+ Super Cross-cut Junk Mail Shredder, 14 Sheets, 1 User (1757391)
p883
sL883L
VQuartet Magnetic Dry-Erase Board, 11 x 14 Inches, Black/Silver Frame (79367)
p884
sL884L
VMead Spiral 1-Subject Wide-Ruled Notebook, 1 Notebook, Color May Vary, Assorted Colors  (05510)
p885
sL885L
VSparco Long Reach Stapler, 20 Sheet Capacity, Standard Staples, Putty/Black (SPR01316)
p886
sL886L
VBankers Box SmoothMove Moving Boxes with No-Tape Assembly, Lift -Off Lids And Easy-Carry Handles, 15 x 10 x 12 Inches - 10 Pack (7714203)
p887
sL887L
VHandStands Extra Large Super Mouse Pad, Grey
p888
sL888L
VCanon PIXMA MX340 Wireless Office All-in-One Printer (4204B019)
p889
sL889L
VPost-it Flags with On-the-Go Dispenser, Purple, Blue, and Green, 1-Inch Wide, 60/Dispenser, 1-Dispenser/Pack
p890
sL890L
VBIC Dry Erase Marker Kit 5 markers, whiteboard cleaner and whiteboard Eraser Assorted
p891
sL891L
VFoot Cushion, Half-Cylinder Design, Foam, Black 92311
p892
sL892L
VBIC Cristal For Her Ball Pen, 1.0mm, Black, 10ct (MSLP101-Blk)
p893
sL893L
VCanon PG-240XL Office Products FINE Cartridge Ink
p894
sL894L
VEpson LabelWorks Iron-On Kit (C51CB69130)
p895
sL895L
VLogitech Notebook Riser (N110)
p896
sL896L
VSharpie Ultra-Fine-Point Permanent Markers, 24-Pack Colored Markers (75847)
p897
sL897L
VLogitech Wireless Presenter R400
p898
sL898L
VWilson Jones Pink 7 Pocket Filer, Durable Poly, Buckle Closure, Carrying Handle (W61012)
p899
sL899L
VKodak ESP 7250 All-in-One Printer
p900
sL900L
VOfficemateOIC Binder Clips, Assorted Colors and Sizes, 30 Clips per Tub (31026)
p901
sL901L
VSakura 57370 10-Piece Gelly Roll Blister Card Assorted Colors Metallic Gel Ink Pen Set
p902
sL902L
VBrother Tape, Retail Packaging, 3/8 Inch, Black on Red (TZe421) - Retail Packaging
p903
sL903L
VPentel Mechanical Pencil Eraser Refills, Z21, 3/Tube, PK - PENZ21
p904
sL904L
VSmead Hanging Steel Letter Size File Folder Drawer Frames 2 Count (64870)
p905
sL905L
VFloortex Ultimat Polycarbonate Chair Mat for Low/Medium Pile Carpets Up To 1/2 Inch Thick, Clear 47 x 35 Inches, Rectangular with Lip, (118923LR)
p906
sL906L
VHP 61 Black Original Ink Cartridge
p907
sL907L
VZebra's Sarasa Rapid Dry Ink Gel Retractable Pen, 0.7mm, Assorted, 10 Pack (46881)
p908
sL908L
VPanasonic KX-TG7623B DECT 6.0 Link-to-Cell via Bluetooth Cordless Phone, Black, 3 Handsets
p909
sL909L
V3M Extra Wide Adjustable Monitor Stand, Height 1 in to 5 7/8 in, Holds 40 lbs, 16 in Space Between Columns, Silver/Blk
p910
sL910L
VFive Star 3-Ring Customizable Plastic Binder, 1.5-Inch Capacity, 11.78 x 11.12 x 1.75 Inches, Green (72419)
p911
sL911L
VBrother MFC-8860DN Flatbed Laser All-in-One Printer with Duplex
p912
sL912L
VWellspring Flip Note, Croc Black (2249)
p913
sL913L
VFlash Furniture WL-905DG-GG Black Ergonomic Stool with Foot Ring
p914
sL914L
VSamsung SL-M2885FW/XAA Wireless Monochrome Printer with Scanner, Copier and Fax
p915
sL915L
VStaedtler Mars Plastic Erasers,Pack of 4 (52650BK4)
p916
sL916L
VAvery Note Cards, 4.25 x 5.5 Inches, Matte, White, Box of 60 (08315)
p917
sL917L
V10 High Yield Compatible Ink Cartridge Combo, LC75  (4xBk, 2xC, 2xM &amp; 2xY)
p918
sL918L
VScotch Adhesive Dot Roller Refill, 0.31 x 49 Feet (6055-R)
p919
sL919L
VHP 21/22 Ink Cartridge-Combo Pack
p920
sL920L
VBrother Printer LC75M High Yield (XL Series) Magenta Cartridge Ink - Retail Packaging
p921
sL921L
VCanon PGI-5BK CLI-8 15-Pack Compatible Ink Cartridges w/ Chip for Pixma MP500 MP530 MP600 MP800 iP4200 iP4300 iP4500 iP5200 iP5200
p922
sL922L
VRaindrop Mouse Pad, Blue
p923
sL923L
VCanon PIXMA MX700 Office All-On-One Inkjet Printer
p924
sL924L
VTEKwriterUSA Gelwriter Gel Pen Set with Stadium Stand, 44-Count (27105-D)
p925
sL925L
VPilot Dr. Grip Center of Gravity Ballpoint Ink Refill, 2-Pack, Medium Point, Black Ink (77271)
p926
sL926L
VSwingline EX12-05 Super Cross-Cut Shredder, 12 Sheets, 1 User (1757390)
p927
sL927L
VPrivate Reserve Arabian Rose Ink Bottle 50 ML
p928
sL928L
VHP&nbsp;CP2025DN&nbsp;Color&nbsp;LaserJet&nbsp;Printer
p929
sL929L
VPaper Mate Flair Point-Guard Porous Point Pens, 12 Blue Pens (8410152)
p930
sL930L
VAmazonBasics 8-Sheet Micro-Cut Paper, CD, and Credit Card Shredder with Pullout Basket
p931
sL931L
VKEY-BAK #SUPER 48 (S48K) Locking Retractable Reel, 48 inch (122 cm) Kevlar Cord, Polycarbonate Case, Steel Belt Clip, 8 Ounce Retraction, Oversized Split Ring
p932
sL932L
VAllsop Monitor Corner Stand Metal Art - Silver (29191)
p933
sL933L
VVelcro Extreme Indoor/Outdoor Rough Surface Fasteners, 1 inch x 4 inches, 10 per pack (90812)
p934
sL934L
VKeyspan by Tripp Lite PR-PRO3 Presentation Remote Pro Wireless w Laser, Mouse, Audio Controls
p935
sL935L
VEpson LabelWorks LW-400 Label Maker (C51CB70010)
p936
sL936L
VSmead Folder, Letter, 11 Point, 1/3 Cut Tab, Cutless, Manila, 100 Per Box (10341)
p937
sL937L
VPaper Mate 70521 Pink Pearl Premium Erasers, Large 12-Pack
p938
sL938L
VSmead, Step Index Organizer, 12 Pockets, Letter Size, A-Z and Monthly,  Navy Poly (70902)
p939
sL939L
VBIC Round Stic Ballpoint Pens, 1.0 mm, Black,  Box of 12 (GMS11-Blk)
p940
sL940L
VTop-Load Poly Sheet Protectors Standard Letter Clear 100/Box
p941
sL941L
VScotch Adhesive Dot Roller, 0.31 x 49 Feet (6055)
p942
sL942L
VNeutroni Oslo Notebook 192 Ruled Pages Black A4
p943
sL943L
VLittleGifts Dog Lover Mousepad &amp; Coaster Set
p944
sL944L
VMod Podge CS11202 Original 16-Ounce Glue,  Gloss Finish
p945
sL945L
VEpson WorkForce 545 Wireless All-in-One Color Inkjet Printer, Copier, Scanner, Fax, iOS/Tablet/Smartphone/AirPrint Compatible (C11CB88201)
p946
sL946L
VHewlett Packard 1102W Laserjet Wireless Printer
p947
sL947L
VEpson T054020 Gloss Optimizer Cartridges
p948
sL948L
VFountain Pen Refill Cartridges, permanent Blue Ink, 5/Pack PAR30160
p949
sL949L
VCooler Master NotePal ErgoStand - Height Adjustable Laptop Cooling Stand
p950
sL950L
VBankers Box Stor/File Medium-Duty Storage Boxes with String &amp; Button, Letter, 12 Pack (00704)
p951
sL951L
VKodak ESP 2170 All-in-One Printer
p952
sL952L
VSentry Safebox - CB-10
p953
sL953L
VDocument Scanner Mobile Scanner Handheld Scanner 900DPI Color &amp; Mono Handyscan For Document, Photo, Receipts, Books - Optical Character Recognition (Ocr) Software Included
p954
sL954L
VCanon CanoScan 3297B002 LiDE 700F Color Image Scanner
p955
sL955L
VBankers Box Stor/File Storage Box with Lift-Off Lid, Letter/Legal, 12 x 10 x 15 Inches, White, 12 Pack (00703)
p956
sL956L
VPilot Precise V7 Stick Rolling Ball Pens, Fine Point, 5-Pack, Black Ink (26020)
p957
sL957L
V3 Mil Clear Letter Size Thermal Laminating Pouches 9 X 11.5 Qty 100 (UNV84622)
p958
sL958L
VSource One LLC Clear Acrylic Business Card Holder (BC-1)
p959
sL959L
VCanon Photo Paper Plus Glossy II, 4 x 6 Inches, 50 Sheets (2311B022)
p960
sL960L
VX-Acto XLR 1818 Electric Pencil Sharpener, Black
p961
sL961L
VLamy Safari Vista Fountain Pen - Demonstrator Clear, Extra-Fine Nib L12EF
p962
sL962L
VFellowes Starlet Personal Comb Binder, Gray (Starlet)
p963
sL963L
VAvery Big Tab Two-Pocket Insertable Plastic Dividers, 5-Tab Set (11906)
p964
sL964L
VDuck Brand Stretch Wrap, 20-Inch Wide x 1000 Feet Long, Single Roll (970700)
p965
sL965L
VBelkin Standard Mouse Pad -Blue
p966
sL966L
VPentel Super Hi-Polymer Lead Refill , 0.9 mm Thick, HB, 60 Pieces of Lead (C29BPHB2)
p967
sL967L
VClassroom Keepser Magazine Holders, 6  Assorted Colors, (001327)
p968
sL968L
VSophia Global Compatible Ink Cartridge Replacement for Canon PGI-250XL (1 Large Black)
p969
sL969L
VPrecision Point Whiteboard Eraser
p970
sL970L
VThe Packaging Wholesalers 3 Cubic Feet 18-1/8 x 18 x 16 Inches Medium Moving Box with 32 ECT Room Locator Check-Off Box (BS181816MMB)
p971
sL971L
VEpson WorkForce Pro WP-4540 All-in-One Printer
p972
sL972L
VPanasonic KX-TG9333T DECT 6.0 Cordless Phone
p973
sL973L
VGuided Products RePocket Recycled Presentation Folder (GDP00006)
p974
sL974L
VSharpie 27010 Accent Pocket Style Highlighter, Fluorescent Blue, 12-Pack
p975
sL975L
VFive Star Flex Hybrid NoteBinder, 1-Inch Capacity, Customizable Cover, 11.5 x 10.75 x 1.25 Inches, Pink (72345)
p976
sL976L
VUniversal Clear Laminating Pouches, 4-3/8&quot; x 6-1/2&quot;, 100/Box (84680)
p977
sL977L
VPentel Presto! Jumbo Correction Pen, Fine Point, Metal Tip, Box of 12 (ZL31-W)
p978
sL978L
VEpson WorkForce WF-2540 Wireless All-in-One Color Inkjet Printer, Copier, Scanner ADF, Fax. Prints from Tablet/Smartphone. AirPrint Compatible (C11CC36201)
p979
sL979L
VFive Star Spiral Notebook, College Ruled, 1 Subject, 8.5 x 11 Inches, 100 Sheets, Assorted Colors (06206)
p980
sL980L
VTEKwriterUSA Gelwriter Gel Pen Set with Stadium Stand, 68-Count (27106-D)
p981
sL981L
Vuni-ball Vision Stick Fine Point Roller Ball Pen (60126) - Pack of 12
p982
sL982L
VPanasonic KX-TG4771B Dect_6.0 1-Handset 1-Line Landline Telephone
p983
sL983L
V10-pack LC51 LC-51 (4B,2C,2M,2Y) Brother Compatible Ink Cartridges for Brother MFC240C, DCP130C, MFC-5460CN, MFC-440CN, MFC-665CW, MFC-5860CN, MFC-3360C
p984
sL984L
VWalker Edison 3-Piece Contemporary Desk, Multi
p985
sL985L
VFellowes Pulsar+ Comb Binding Machine with Starter Kit (5006801)
p986
sL986L
VD1780-2 DECT 6.0 Expandable Cordless Phone with Digital Answering System, Silver, 2 Handsets
p987
sL987L
VAvery Two-Pocket Portfolios, Embossed Paper, 30-Sheet Capacity, Green, Box of 25 (47987)
p988
sL988L
VSwingline Standard Stapler, Eco Version, 15 Sheets, Black (S7054501)
p989
sL989L
VStanley Bostitch EZ Squeeze 130 Flat Clinch Reduced Effort Stapler (B8130)
p990
sL990L
VHP LaserJet Pro M1536dnf Multifunction Printer
p991
sL991L
VX-ACTO Teacher Pro Electric Pencil Sharpener with SmartStop, Black (1675)
p992
sL992L
VCasio USB Graphing Calculator Model FX-9860GII
p993
sL993L
VDigital Postal Shipping Postage Bench Scales 35 lbs
p994
sL994L
V3M Permanent Adhesive Address Labels, 1 x 2.62 Inches, White, 3000 per Pack (3100-B)
p995
sL995L
VScotch(R) Gift Wrap Tape, 0.75 x 300 Inches, 3 Pack (311)
p996
sL996L
VExpo 6 Piece Original Dry Erase Marker Starter Kit
p997
sL997L
VMartin Yale Premier Automatic Handheld Battery-Operated Letter Opener, Concealed Blade, 5-1/2&quot; Long (1624)
p998
sL998L
V200 Half Sheet - Best Print Shipping Labels - 5-1/2&quot; x 8-1/2&quot; (Same size as Avery&reg; 5126)
p999
sL999L
VFellowes Powershred 60Cs 10-Sheet Cross-Cut Shredder (4606001)
p1000
sL1000L
VColumbian CO645 6x9-Inch Catalog Brown Kraft Envelopes, 500 Count
p1001
sL1001L
VSamsung SL-M2835DW/XAA Wireless Monochrome Printer
p1002
sL1002L
VElmer's Tac 'N Stik Reusable Adhesive, White, 2 Ounces (98620)
p1003
sL1003L
VMustek Scan Express A3 1200 Pro USB Large Format Scanner
p1004
sL1004L
VApache AL13P Professional 13&quot; Wide A3 4 Roll Hot Cold Laminator for Document and Photo
p1005
sL1005L
VPaperMate Pink Pearl Premium Medium Rubber Eraser, 3-Count (70502PP)
p1006
sL1006L
VSafco Under-Desk Printer/Fax Stand
p1007
sL1007L
VPaper Mate Profile Retractable Ballpoint Pens, Assorted Ink, 8 Pack (54549)
p1008
sL1008L
VEpson DS-510 WorkForce Document Scanner (B11B209201)
p1009
sL1009L
VVTech DS6521-3 DECT 6.0 Cordless Phone, Silver/Black, 3 Handsets
p1010
sL1010L
VBelkin 8-by-9-Inch Mouse Pad (Black)
p1011
sL1011L
VShacke&#153; 24 Magnetic Push Pins - Assorted Colors - For Metal Filing Cabinets, Whiteboards, Bulletin &amp; Cork Boards, and Refrigerators - Made From Strong Neodymium Magnets - Lifetime Guaranteed (Assorted)
p1012
sL1012L
VPaperPro Desktop Stapler, Black/Gray (1100)
p1013
sL1013L
VPaper Mate Liquid Paper DryLine Grip Correction Tape, 0.2 x 335 Inches, 2-Pack (662415)
p1014
sL1014L
VPrismacolor Premier Soft Core Colored Pencils, 72 Colored Pencils
p1015
sL1015L
VScotch Desk Tape Dispenser, 1in. Core, Black
p1016
sL1016L
VHP 57 Tri-Color Ink Cartridge in Retail Packaging
p1017
sL1017L
VPendaflex Oxford Ruled Index Cards, 3x5 Inches, White, 1000 Cards (10 pack of 100 )(31)
p1018
sL1018L
VInktoneram Remanufactured Ink Cartridges High Capacity Replacement for 127 (5x Black, 3x Cyan, 3x Magenta, 3x Yellow, 14-Pack)
p1019
sL1019L
VPilot B2P - Bottle to Pen - Retractable Gel Roller Pens Made from Recycled Bottles, Dozen Box, Fine Point, Black (31600)
p1020
sL1020L
VRolodex Mesh Collection Business Card Holder, Black (22251ELD)
p1021
sL1021L
VAvery Index Maker Clear Label Dividers with 5 White Tabs 25 Count (11446)
p1022
sL1022L
VCanon PGI-225 4530B007 Twin Pack Value Pack-Black
p1023
sL1023L
VBrother MFC-490CW Color Inkjet Wireless All-in-One Printer
p1024
sL1024L
VJumbl 35mm Film Slide and Negative Scanner - 10 Mega Pixel Film to Digital Image Converter - with 2.4-Inch LCD and TV-Out
p1025
sL1025L
VAvery NoteTabs, 2 x 1.5 Inches, Numbers, 2 Sets of 1-10 (16301)
p1026
sL1026L
VRolland Office Chair Caster Wheel for Hardwood Floor - Stem Diameter: 11mm, Stem Length: 22mm - 5 Unit/Pack
p1027
sL1027L
VPendaflex Recycled Standard Green 1/5-Cut Tab Hanging File Folders, 25 per Pack (81602)
p1028
sL1028L
VWilson Jones 362 Basic Round Ring View Binder, 1 Inch, White, 4 Pack (W70362-14W)
p1029
sL1029L
VGP Spectrum Multi-Use Paper, 8.5 x 11 Inches, 3-Ream Pack (1500 Sheets) (998606)
p1030
sL1030L
VHP Color Inkjet Paper, 24 Pound, Uncoated, 96-Plus Brightness, 8.5 x 11 Inches, 400 Sheets (202040)
p1031
sL1031L
VQuartet Cork Bulletin Board, 2 x 3 Feet, Oak Finish Frame (MWDB2436M)
p1032
sL1032L
VSmead 89501 Campus.org Poly Color Envelopes - 5 Pack, Assorted Colors
p1033
sL1033L
VPost-It Super Sticky Removable Color Coding Labels, 2 x 4 Inches, Assorted Neon, 150 per Pack (2700-W)
p1034
sL1034L
VArrow Fastener Arrow PT50 Pneumatic Staple Gun
p1035
sL1035L
VCanon 1306B002 CanoScan 4400F Color Image Scanner
p1036
sL1036L
VWausau Paper Index Card Stock, 92 Brightness, 110 lb, Letter, White, 250 Sheets per Pack (49411)
p1037
sL1037L
VPilot Iroshizuku Bottled Fountain Pen Ink, Yama-Guri, Wild Chestnut, Dark Brown (69219)
p1038
sL1038L
VDYMO Labeling Tape, &frac12;&quot; x 23', Black Print on White Tape (45013) D1 Label Cassette, Split Back Easy Peel Adhesive
p1039
sL1039L
VCross Ballpoint Pen Refill, Fine Black, 2 per card, (8514-2)
p1040
sL1040L
VHammermill Color Copy 80 lb 8 1/2 x 11 Inch Photo White Cover Stock 250 Sheets (12002-3)
p1041
sL1041L
VWolverine F2D14 14 MP 35mm Slides and Negatives to Digital Image Converter
p1042
sL1042L
VAvery Binder Pockets, Acid Free, Pack of 5 (75254)
p1043
sL1043L
VCambridge Limited Meeting Planner (6132)
p1044
sL1044L
VRolodex Elegant Warm Metropolitan Look Desk Tray (23350)
p1045
sL1045L
VEpson WorkForce WF-7520 Wireless All-in-One Wide-Format Color Inkjet Printer, Scanner, Copier, Fax (C11CB58201)
p1046
sL1046L
VHoward Leight LL1 Laser Lite Earplugs no Cords (200 ct)
p1047
sL1047L
VCanon PIXMA iP4920 Premium Inkjet Photo Printer (5287B002)
p1048
sL1048L
VMead Press-It Seal-It #10 White Envelopes, 50 Count (75024)
p1049
sL1049L
VElmer's Washable All-Purpose School Glue Sticks, .24 oz,  30 Pack (E556)
p1050
sL1050L
VAvery To/From Shipping Label Pad, 40 Labels (45280)
p1051
sL1051L
VAvery Textured Scallop Round Labels, White, 2.5-Inch Diameter, Pack of 27 (80500)
p1052
sL1052L
VMead Organizher Shopping Companion, 5.5 x 8.5 Inches, Pink (67022)
p1053
sL1053L
VPilot Metropolitan Collection Gel Roller Pen, Gold Barrel, Classic Design, Fine Point, Black Ink (91209)
p1054
sL1054L
VScotch Light Duty Packaging Tape 610 Clear Heat Resistant, 1 in x 72 yd (Pack of 1)
p1055
sL1055L
VEpson T200120 DURABrite Ultra Standard-Capacity Black Ink Cartridge
p1056
sL1056L
VSmead SuperTab&reg; Two-Pocket Lockit Folders, Laminated Stock, Blue, 5 per Pack (87964)
p1057
sL1057L
VAmericopy 3,000 Address or Mailing Labels, 2-5/8&quot; x 1&quot; 100 sheets (Same size as Avery&reg; 5160)
p1058
sL1058L
VEpson Stylus NX530 Wireless All-in-One Color Inkjet Printer, Copier, Scanner (C11CB90201)
p1059
sL1059L
VBlack n' Red Twin Wire Hardcover Notebook, 8-1/4 x 5-7/8 Inches, Black, 70 sheets (L67000) (140 pages)
p1060
sL1060L
VVivamart Remanufactured Ink Cartridges Replacement for EPSON T069 Set -4Black/3Cyan/3Yellow/3Magneta 13-PACK
p1061
sL1061L
VExpo Low Odor Chisel Tip Dry Erase Markers, 12 Red Markers (80002)
p1062
sL1062L
VPanasonic KX-TG6512B DECT 6.0 PLUS Expandable Digital Cordless Phone System, Black, 2 Handsets
p1063
sL1063L
VCasio Inc. HS8VA Standard Function Calculator
p1064
sL1064L
VPilot FriXion Point Erasable Gel Pens, Extra Fine Point, 3-Pack, Black Ink (31578)
p1065
sL1065L
VSmead TUFF Hanging Folder with Easy Slide Tab, Letter Size, Standard Green, Box of 20 (64036)
p1066
sL1066L
VSmead Hanging Folder, Letter, 1/5 Cut Tab, Jewel tones, 25 per Box (64056)
p1067
sL1067L
VAvery Easy Peel Print-To-The-Edge Permanent Labels, Oval, Laser/InkJet, 1.5 x 2.5-Inches, Glossy White, Pack of 180 (22804)
p1068
sL1068L
VEpson WorkForce 325 Color Inkjet All-in-One (C11CB08201)
p1069
sL1069L
VQuartet Magnetic Dry-Erase Calendar Tile, 14 x 14 Inches, 1-Month Design, Frameless, Silver (48114-SL)
p1070
sL1070L
VWilson Jones Ultra Duty Round Ring View Binder with Extra Durable Hinge, 1.5 Inch, White (W87905PP2)
p1071
sL1071L
VCanon PIXMA Pro9000 Mark II Inkjet Photo Printer (3295B002)
p1072
sL1072L
VEpson WorkForce 845 Wireless All-in-One Color Inkjet Printer, Copier, Scanner, Fax, iOS/Tablet/Smartphone/AirPrint Compatible (C11CB92201)
p1073
sL1073L
VAvery Assorted File Folder Label Pad, 1/3 Cut, 160 Labels (45215)
p1074
sL1074L
VAvery Textured Half-Fold Greeting Cards for Inkjet Printers, Uncoated, 5.5 x 8.5 Inches, White, Box of 30 (03378)
p1075
sL1075L
VAvery WorkSaver Big Tab Insertable Dividers, 8-Tabs, 1 Set (11111)
p1076
sL1076L
VSwingline GBC Inspire Thermal Laminator, 9 inch Max Width, 3 Mil (5 Mil up to 4 inch x 6 inch) (1701855)
p1077
sL1077L
VWOW!PAD LFR48 11.5&quot; x 12.5&quot; Graphite Large Format Mouse Pad
p1078
sL1078L
VBoise OX-9001 X-9T Multipurpose Paper, 20-lb., 8-1/2 x 11, 5,000 Sheets/Carton
p1079
sL1079L
VPilot G2 Mini Retractable Gel Ink Rolling Ball Pens, Fine Point, 4-Pack, Assorted Color Inks (31203)
p1080
sL1080L
VAvery  Big Tab Insertable Plastic Dividers, 5-Tabs, 1 Set (11900)
p1081
sL1081L
VBankers Box Hang'N'Stor Medium-Duty Storage Boxes, Letter, 4-Pack (0078403)
p1082
sL1082L
VBrother HL-3070CW Compact Digital Color Printer with Wireless Networking
p1083
sL1083L
VDoxie Go - Rechargeable Mobile Document Scanner
p1084
sL1084L
g399
sL1085L
VEpson WorkForce Pro WF-4630 Wireless and WiFi Direct All-in-One Color Inkjet Printer, Copier, Scanner, 2-Sided Auto Duplex, ADF, Fax. Prints from Tablet/Smartphone. AirPrint Compatible. (C11CD10201)
p1085
sL1086L
VSwingline Deluxe Gray Heavy Duty Stapler (S7039002R)
p1086
sL1087L
VSamsung Electronics CLP-365W Wireless Color Printer
p1087
sL1088L
VStanley Bostitch Professional Magnetic Staple Remover, Black (40000M-BLK)
p1088
sL1089L
VEpson WorkForce 840 Wireless All-in-One Color Inkjet Printer, Copier, Scanner, Fax (C11CA97201)
p1089
sL1090L
VExpo Low Odor Dry Erase Pen Style Markers, 12 Colored Markers (86603)
p1090
sL1091L
VPost-it&reg; Page Markers, 1/2-inch x 1-3/4 Inch, Ideal for Temporary Marking and Noting In Books, Assorted Ultra Colors, 500 per Pack
p1091
sL1092L
VEpson Stylus Photo 1400 Wide-Format Color Inkjet Printer (C11C655001)
p1092
sL1093L
VSwingline S.F. 4 Premium Chisel Point Staples, 0.25 Inch Leg Length, 1 Box, 5,000 Staples per Box, Silver (S7035450)
p1093
sL1094L
VSwingline Tot Stapler, Built-in Staple Remover, 12 Sheets, Assorted Colors (S7079141)
p1094
sL1095L
VPanasonic KX-TG4741B DECT 6.0 Cordless Phone with Answering System, Black, 1 Handset
p1095
sL1096L
VEpson LabelWorks Clear LC Tape Cartridge ~1/2-Inch Gold on Clear (LC-4TKN9)
p1096
sL1097L
VMead Composition Book, Wide Ruled, 9.75 x 7.50 Inch Sheet Size, Black Marble, Bookbound, 100 Sheets (09910)
p1097
sL1098L
VEpson Expression Premium Photo XP-800 Small-in-One Wireless Color Inkjet Printer, Copier, Fax, and Scanner with auto 2 sided scanning, copying, and printing. Prints from Tablet/Smartphone.  AirPrint Compatible (C11CC45201)
p1098
sL1099L
VWilson Jones Resource Recycled Kraft Binder, Round Ring, 1 Inch, Kraft Brown (W31501)
p1099
sL1100L
VTexas Instruments TI-83 Graphing Calculator
p1100
sL1101L
VIOGEAR Multimedia Keyboard with Laser Trackball and Scroll Wheel, 2.4GHz Wireless GKM561R (Black)
p1101
sL1102L
VSmead SuperTab Folder, Letter, 11 Point, 1/3 Cut Tab, Manila, 100 Per Box (10301)
p1102
sL1103L
VSharpie Accent Retractable Highlighters, Assorted, Fine Point, 8/Pack
p1103
sL1104L
VFellowes Cosmic 125 Laminator (5216001)
p1104
sL1105L
V200 Shipping Labels White Blank Half Page Self Adhesive for Laser Inkjet Printer 5.5&quot; x 8.5&quot; x 2 each sheet
p1105
sL1106L
VSharpie 1758054 Pen-Grip Fine Point Pen, Colored Ink, 3-Pack
p1106
sL1107L
VLexmark Pinnacle Pro901 All-in-One Printer
p1107
sL1108L
V10 Pack Of Non-OEM LC61 Ink Cartridges -Cyan/Magenta/Yellow
p1108
sL1109L
VC-Line Write-On Project Folders, Heavyweight Poly, Assorted Colors, 8.5 x 11 Inches, 25 per Box (62160)
p1109
sL1110L
VBIC Students Choice Mechanical Pencil (0.9mm), 10ct (MPLWSP101-Blk)
p1110
sL1111L
VAvery Sticky Notes Cube, 3 x 3 Inches, Assorted Bold Colors, 400 Sheets (22546)
p1111
sL1112L
VBrother MFC7460DN Ethernet Monochrome Printer with Scanner, Copier &amp; Fax
p1112
sL1113L
VSharp EL-344TB Twin Power 10-Digit Calculator with Kick Stand
p1113
sL1114L
VInk Cartridges for use on Canon PIXMA Printers (2 Sets)
p1114
sL1115L
VEpson Premium Photo Paper GLOSSY (11x17 Inches, 20 Sheets) (S041290)
p1115
sL1116L
VAcademie Wirebound Sketch Diary, 14 x 11 Inches, 70 Sheets (54400)
p1116
sL1117L
VBrother Printer Work Smart MFCJ870DW Wireless Color Inkjet All-In-One Printer with Scanner, Copier and Fax
p1117
sL1118L
VSmead Fastener File Folders, Letter Size, 1/3 Cut Reinforced Tab, Two Fasteners in Positions #1 and #3, Manila, 50 Per Box (14537)
p1118
sL1119L
VCanon PGI-9 Green Ink Tank (1041B002)
p1119
sL1120L
VFellowes Thermal Binding Machine, Helios 30 (5219301)
p1120
sL1121L
VStaedtler Metal Sharpeners, Double Hole for Pencils and Colored Pencils 2 ea, 510 20BK2
p1121
sL1122L
VPentel Super Hi-Polymer Lead Refill 0.5mm Fine, 2B, 36 Pieces of Lead (C505BP32B-K6)
p1122
sL1123L
VCanon ImageCLASS MF4350d Laser All-in-One Printer
p1123
sL1124L
VBrother PC-Connectable Label Maker with Auto Cutter (PT-2430PC)
p1124
sL1125L
VScotch Desktop Tape Dispenser Silvertech, Two-Tone
p1125
sL1126L
VFellowes Gel Wrist Rest and Mouse Pad, Graphite/Platinum (91741)
p1126
sL1127L
VAmazonBasics 12-Sheet High Security Micro-Cut Paper, CD, and Credit Card Shredder with Pullout Basket
p1127
sL1128L
VPanasonic KX-TG4024N DECT 6.0 PLUS Expandable Digital Cordless Phone with Answering System, Champagne Gold, 4 Handsets
p1128
sL1129L
VPaperPro 1210 Professional 65 Sheet Stapler
p1129
sL1130L
VAmazonBasics 6-Sheet Cross-Cut Shredder
p1130
sL1131L
VFellowes Binding Machine, Comb, Electric, Quasar E 500 with Starter Kit (5216901)
p1131
sL1132L
VPanasonic KX-TG9391T 2-Line Corded/Cordless Phone, Metallic Black, 1 Handset
p1132
sL1133L
VSwingline 747 Classic Stapler, 20 Sheets, Black (74701)
p1133
sL1134L
VSharpie Neon Fine Point Permanent Markers, 5 Colored Ink Markers
p1134
sL1135L
VVTech LS6425-3 DECT 6.0 Cordless Phone, Black/Silver, 3 Handsets
p1135
sL1136L
VFellowes Memory Foam Mouse Pad/Wrist Rest, Black (9176501)
p1136
sL1137L
VWilson Jones Ultra Duty D-Ring View Binder with Extra Durable Hinge, 1.5-Inch, Black (W86661)
p1137
sL1138L
VPost-it Pop-up Notes Dispenser for 3 x 3-Inch Notes, Pink, Heart Shape
p1138
sL1139L
VBostitch Epic Stapler, Blue (B777-BLUE)
p1139
sL1140L
VCanon PIXMA MG6120 Wireless Inkjet Photo All-in-One Printer (4503B002)
p1140
sL1141L
VHP Photosmart B8550 Inkjet Photo Printer
p1141
sL1142L
V3M Lever-Adjust Keyboard Tray with Adjustable Platform, 17-3/4 Inch Track (AKT101LE)
p1142
sL1143L
VAvery Durable View Binder with 1-Inch Slant Ring, Holds 8.5 x 11 Inches Paper, White, 1 Binder (17012)
p1143
sL1144L
VBIC Mark-It Color Collection Ultra Fine Permanent Marker, Assorted, 36 Markers
p1144
sL1145L
VBrother HL-2270DW Compact Laser Printer with Wireless Networking and Duplex
p1145
sL1146L
VCanon PIXMA MG5220 Wireless Inkjet Photo All-in-One (4502B017)
p1146
sL1147L
VCanon PIXMA MP490 Inkjet Photo All-In-One Printer (3745B002)
p1147
sL1148L
VAmazonBasics Thermal Laminating Pouches - 8.9-Inch x 11.4-Inch (100-Pack)
p1148
sL1149L
VAleratec DVD/CD Shredder XC 240145 (Black)
p1149
sL1150L
VCanon PIXMA PRO-10 Color Professional Inkjet Photo Printer
p1150
sL1151L
VPanasonic KX-TG6545B DECT 6.0 PLUS Expandable Digital Cordless Phone with Answering System, Black, 5 Handsets
p1151
sL1152L
VAvery Self-Adhesive Laminating Sheets, 9&quot; x 12&quot;, Pack of 10 (73603)
p1152
sL1153L
VAmazonBasics 8-Sheet Strip-Cut Paper, CD, and Credit Card Shredder
p1153
sL1154L
VRolodex 22351 Mesh round wastebasket, 11-1/2 diameter x 14-1/4h, black
p1154
sL1155L
VBrother IntelliFax 2820 Laser Fax Machine and Copier
p1155
sL1156L
VPentel Twist-Erase III Automatic Pencil with 2 Eraser Refills, 0.9mm, Assorted Barrels, 2 Pack (QE519BP2-K6)
p1156
sL1157L
VGenuine HP CR316BN 933XL Combo 3-Color, in Retail Packaging-1 Cyan XL/1 Magenta XL /1 Yellow XL
p1157
sL1158L
VBrother DR360 Drum Unit - Retail Packaging
p1158
sL1159L
VWhitmor 6056-344-N Supreme Cart, Chrome
p1159
sL1160L
VEpson WorkForce WF-3540 Wireless All-in-One Color Inkjet Printer, Copier, Scanner, 2-Sided Duplex, ADF, Fax. Prints from Tablet/Smartphone. AirPrint Compatible (C11CC31201)
p1160
sL1161L
VPilot The Better Retractable Ballpoint Pens, Fine Point, Blue Ink, Dozen Box (30001)
p1161
sL1162L
VPlantronics CS540 with HL10 Wireless Headset System- Black/Silver
p1162
sL1163L
VCanon CL-51 High-Capacity Color Ink Cartridge
p1163
sL1164L
VCanon Photo Paper Glossy, 4 x 6 Inches, 100 Sheets (0775B022)
p1164
sL1165L
VVision Stick Needle Roller Ball Pens, Fine Point Pens, Assorted Colors, Set of 8
p1165
sL1166L
VUniversal Lightweight Hand Letter Opener
p1166
sL1167L
VTexas Instruments TI-84 Plus Graphing Calculator
p1167
sL1168L
VBlack &amp; Decker Flash Thermal Laminator 9.5-Inch (LAM95)
p1168
sL1169L
VLapGear 45492 Deluxe Computer LapDesk
p1169
sL1170L
VVELCRO U.S.A. INC &quot;Get A Grip&quot; Velcro, 3/4-Inch 12-Feet, Black (VEK90340)
p1170
sL1171L
VEpson WorkForce 600 Wireless All-in-One Printer (Black) (C11CA18201)
p1171
sL1172L
VLexmark MS610DN MonoChrome Lase Printer - 35S0400
p1172
sL1173L
VCanon PIXMA MX512 Wireless Color Photo Printer with Scanner, Copier and Fax
p1173
sL1174L
VCanon CLI-251 BK/CMY 4 PK Value Pack Ink for Canon InkJet Printers
p1174
sL1175L
VAdvantus Polypropylene Pencil Box with Lid, 8.5 x 5.5 x 2.5 Inches, Clear (AVT34104)
p1175
sL1176L
VCasio Inc. HR-100TM Business Calculator
p1176
sL1177L
VVTech CS6229-4 DECT 6.0 Cordless Phone, Black/Silver, 4 Handsets
p1177
sL1178L
V3M Vertical Notebook Riser (LX550)
p1178
sL1179L
VFujitsu ScanSnap S1500M Instant PDF Sheet-Fed Scanner for the Macintosh
p1179
sL1180L
VSwingline GBC Retractable Badge Reel, Translucent Primary Color Assortment, 5 Pack (37472)
p1180
sL1181L
VCableWholesale RG6 Cable-Clip, White, 100 Pieces per Bag (200-961)
p1181
sL1182L
VBoard Dudes SRX Dry Erase Markers, Medium Point, 10-Count, Assorted Colors. Packaging May Vary from Image (7162UA-24)
p1182
sL1183L
VSharpie Accent Liquid Pen-Style Highlighters, 5 Colored Highlighters(24575PP)
p1183
sL1184L
VPolaroid Zink Media Photo Paper for Polaroid Pogo Cameras and Printers
p1184
sL1185L
VPaperPro Prodigy Stapler, Black/Silver (1110)
p1185
sL1186L
VCanon PIXMA MG8220 Wireless Inkjet Photo All-In-One Printer (5293B002)
p1186
sL1187L
VAmazonBasics Remanufactured  Toner Cartridge Replacement for Brother TN580 High Yield Black
p1187
sL1188L
VBankers Box Presto Heavy-Duty Storage Boxes with Ergonomic Design, Letter/Legal, White/Blue, 12 Pack (0063601)
p1188
sL1189L
VMead Organizher Magnetic Shopping List, 7.38 x 10 Inches, 75 Sheets Per Pad (57109)
p1189
sL1190L
VHP 950XL CN045AN#140 Officejet Ink Cartridge-Black
p1190
sL1191L
VFive Star 6-Pocket Expanding File, 13 x 9.38 Inches, Black (72391)
p1191
sL1192L
VAvery Easy Peel Inkjet Return Address Labels, 2/3 x 1-3/4, White, 1500/Pack (8195)
p1192
sL1193L
VEpson Artisan 835 Wireless All-in-One Color Inkjet Printer, Copier, Scanner, Fax (C11CA73201)
p1193
sL1194L
VSharpie 1770458 Oil-Based Medium Point Pant Marker, Assorted Colors, 5-Pack
p1194
sL1195L
VPaper Mate InkJoy 550 RT Retractable Medium Point Advanced Ink Pens, 4 Colored Ink Pens (1803509)
p1195
sL1196L
VSmead SuperTab File Folder, Letter, 11 Point, 1/3 Cut Tab, Assorted Colors, 24 Per Box (11927)
p1196
sL1197L
VHP 564XL Black 564 Color Ink Cartridges Combo Pack (1 Black, 1 Cyan, 1 Magenta, 1 Yellow)
p1197
sL1198L
Vuni-ball Signo Gel 207 Retractable Roller Ball Pen, Medium Point, Translucent Barrel, Black Ink, 12-Pack (33950)
p1198
sL1199L
VOxford 3X5 Glow Index Cards, Ruled, Assorted Colors, 300 Count (81300)
p1199
sL1200L
VSwingline GBC UltraClear Thermal Laminating Pouches, Menu Size, 3 Mil, 25 Pack (3200579)
p1200
sL1201L
VSamsung Electronics CLX-4195FW Wireless Color Printer with Scanner, Copier and Fax
p1201
sL1202L
V3M Permanent Adhesive Return Address Labels, 1/2&quot; X 1 3/4&quot;  Inches White, Laser, 2000 labels per pack (3100-Q)
p1202
sL1203L
VPilot G2 Gel Ink Refill, 2-Pack for Rolling Ball Pens, Fine Point, Black Ink (77240)
p1203
sL1204L
VACCO Rubber Band Ball, 275 Bands Per Ball, Assorted Colors, 1/Box (72155)
p1204
sL1205L
VCanon CanoScan 4507B002 LiDE110 Color Image Scanner
p1205
sL1206L
VEpson Stylus Photo R2000 Wireless Wide-Format Color Inkjet Printer (C11CB35201)
p1206
sL1207L
VBAZIC Jumbo Color Paper Clips, 50 mm, Assorted, 100 Per Pack
p1207
sL1208L
VPilot FriXion Clicker Retractable Erasable Gel Pens, Fine Point, Black/Blue/Red Inks, 3-Pack (31467)
p1208
sL1209L
VCanon CanoScan LiDE 30 Scanner
p1209
sL1210L
VEpson Stylus NX430 Wireless All-in-One Color Inkjet Printer, Copier, Scanner (C11CB22201)
p1210
sL1211L
VCasio FX-CG10 PRIZM Color Graphing Calculator (Black)
p1211
sL1212L
V3M Gel Wrist Rest, Daisy Design (WR308DS)
p1212
sL1213L
VCompatible Toner Cartridge to Replace Brother TN450, Black
p1213
sL1214L
VKidde AccessPoint 001413 KeySafe Original 2-Key Slimline Pushbutton Combination Key Box, White
p1214
sL1215L
VBIC Brite Liner Highlighter, Chisel Tip, Green, 12 Highlighters
p1215
sL1216L
VSmead Frame View Report Cover with Swing Clip, Letter Size, Clear Front, Portrait Orientation, Poly Oyster, 5 Pack (86044)
p1216
sL1217L
VFellowes Saturn SL 125 Home &amp; Office Laminator
p1217
sL1218L
VAmazonBasics Remanufactured Toner Cartridge Replacement for Brother TN460 High Yield Black
p1218
sL1219L
VQuartet Alphacolor Chalk Sticks, Assorted Colors, 8 Colors, 12/Pack (305003)
p1219
sL1220L
VScotch Heavy Duty Shipping Packaging Tape, 1.88 Inch x 800 Inch, Clear
p1220
sL1221L
VBrother MFCJ6710DW Business Inkjet All-in-One Printer with 11-Inch x 17-Inch Duplex Printing, 11-Inch x 17-Inch Scan Glass &amp; Dual Paper Trays
p1221
sL1222L
VPost-it Notes Value Pack,  Assorted Pastel Colors, 24-Pads/Pack
p1222
sL1223L
VEpson WorkForce WF-2530 Wireless All-in-One Color Inkjet Printer, Copier, Scanner, ADF, Fax. Prints from Tablet/Smartphone. AirPrint Compatible (C11CC37201)
p1223
sL1224L
VLamy Refill Converter (Z24)
p1224
sL1225L
VLamy Bottle Ink Blue/Black T52, 50 ml
p1225
sL1226L
VFurinno Adjustable Vented Laptop Table Laptop Computer Desk Portable Bed Tray Book Stand Multifuctional &amp; Ergonomics Design Dual Layer Tabletop up to 17&quot;
p1226
sL1227L
VVelcro One Wrap Straps, Assorted (90438)
p1227
sL1228L
VBIC 4-Color Ball Pen, Medium Point, 3 Pack, Assorted Ink (MMP31-ASST)
p1228
sL1229L
VSharpie Liquid Pen-Style Highlighters-Assorted-10 ct
p1229
sL1230L
VDYMO 1768960 LabelManager Plug N Play Label Maker
p1230
sL1231L
V3M Gel Wrist Rest for Keyboard with Leathette Cover and Antimicrobial Product Protection, 19 in x 2.8 in, Black
p1231
sL1232L
VFellowes Titan 125 Laminator, 12.5 Inch with 10 Pouches (5724501)
p1232
sL1233L
VPost-it Super Sticky Pad Labels, Pink, Limeade 1 7/8-inch x 2 7/8-inch, 25 Sheets per Pad, One Pad of each Color (2900-PGB)
p1233
sL1234L
VBrother PC501 PPF Print Cartridge - 150 Pages - Retail Packaging
p1234
sL1235L
VCanon 4705A037 BCI-6 Black 2 Pack
p1235
sL1236L
VJumbo Deluxe Metal Bookend (9&quot;)
p1236
sL1237L
VQ2612A HP 12A Print Cartridge in Retail Packaging Laser Toner Cartridge, 2,000 Pages (Black)
p1237
sL1238L
VStanley Bostitch QuietSharp Glow Classroom Electric Pencil Sharpener (EPS11HC)
p1238
sL1239L
VMead Cambridge Limited QuickNotes Business Notebook  (6066)
p1239
sL1240L
VMead Organizher School Memory Keeper, 14-Folder Organizher, 10.25 x 11.5 Inches, Purple (64051)
p1240
sL1241L
VAT&amp;T CL82409 DECT 6.0 Cordless Phone, Black/Silver, 4 Handsets
p1241
sL1242L
VHammermill Laser Print Paper - 8 1/2'' x 11'' Letter Size - White - 24# - 98 Brightness - 500 sheet Ream
p1242
sL1243L
VAvery Shipping Labels for Laser Printers with TrueBlock Technology, 3.333 x 4 Inches, White, Box of 600 (5164)
p1243
sL1244L
VFellowes Powershred Performance Shredder Oil, 16 oz. Extended Nozzle Bottle Shredder (3525010)
p1244
sL1245L
VX-ACTO SharpX Portable Battery Pencil Sharpener, Black/Silver (1770)
p1245
sL1246L
VWilson Jones Favorite Desk File/Sorter, A-Z Index, 10 x 12 Inches, Burgundy (WCC3C)
p1246
sL1247L
VBoss Black LeatherPlus Executive Chair
p1247
sL1248L
VSnap-N-Store Collapsible Index Card File Box, Holds 1100 Cards of 5 x 8 Inches, Black (SNS01647)
p1248
sL1249L
VCanon Pixma MP610 Photo All-In-One Inkjet Printer (2180B002)
p1249
sL1250L
VSatechi Desk Mat &amp; Mate 24&quot; x 14&quot; Desk Pad &amp; Protector Mouse Pad for desktops and laptops (Cream White))
p1250
sL1251L
VWilson Jones Recycled Bliss Binder, Round Rings, 1 Inch Capacity (W31500)
p1251
sL1252L
VPlatinum Preppy Fountain Pen 0.3 Blu/Blk
p1252
sL1253L
VPilot G2 Fashion Collection Gel Roller Pens, Fine Point, Black Ink, Barrel Color May Vary, 2-Pack (31367)
p1253
sL1254L
VKantek 2-Shelf Mobile Printer Stand, Holds up to 75 Pounds, 17 x 13.25 x 14.13 Inches, Black (PS510)
p1254
sL1255L
VEpson WorkForce WF-7610 Wireless and WiFi Direct, All-in-One Wide-Format Color Inkjet Printer, Copier, Scanner, 2-Sided Auto Duplex, ADF, Fax. Prints from Tablet/Smartphone. AirPrint Compatible. (C11CC98201)
p1255
sL1256L
VAT&amp;T 17939 Corded Phone, Black/Silver, 1 Handset
p1256
sL1257L
VPrismacolor Blender Pencil   Colorless, 2-pack (962)
p1257
sL1258L
VLamy Safari Fountain Pen - Charcoal - Fine
p1258
sL1259L
VFellowes I-Spire Series Laptop Lift (9311201)
p1259
sL1260L
VScotch Aluminum Foil Tape 3311 Silver, 2 in x 10 yd 3.6 mil (Pack of 1)
p1260
sL1261L
Vuni-ball 207 Retractable Medium-Point Gel Pens, 8 Colored Ink Pens (40110)
p1261
sL1262L
VSharpie Fine Point Permanent Marker, Black (Canister with 36 Pens)
p1262
sL1263L
VNeenah Premium Cardstock, 96 Brightness, 65 lb, Letter, Bright White, 250 Sheets per Pack (91904)
p1263
sL1264L
VFisher Space NonReflective Military Cap-O-Matic Space Pen, Matte Black (SM4B)
p1264
sL1265L
VSwingline SmartTouch Stapler, Reduced Effort, 25 Sheets, Black/Gray (S7066503)
p1265
sL1266L
VQuartet 4-Month Dry-Erase Planner Board, 23 x 35 Inches, Black Frame (05149SV)
p1266
sL1267L
VPentel Sharp Kerry Mechanical Pencil, 0.50 mm, Metallic Black Barrel, 1 Unit (P1035A)
p1267
sL1268L
VHP Photosmart C3180 All-in-One Printer, Scanner, and Copier
p1268
sL1269L
VPanasonic KX-TG6572R DECT 6.0 Cordless Phone with Answering System, Wine Red, 2 Handsets
p1269
sL1270L
VEpson DURABrite T097120 Ultra 97 Extra High-capacity Inkjet Cartridge -Black
p1270
sL1271L
VScotch Thermal Laminator 2 Roller System (TL901)
p1271
sL1272L
VSamsung SL-C1860FW/XAA Wireless Color Printer with Scanner, Copier and Fax
p1272
sL1273L
VWestcott Paper Trimmer With Titanium Bonded Cut And Score Blades, 12&quot;
p1273
sL1274L
VAT&amp;T EL52100 DECT 6.0 Digital Cordless Answering System
p1274
sL1275L
VStanley Bostitch EZ Squeeze 40 Flat Clinch Reduced Effort Stapler (B9040)
p1275
sL1276L
VFlash Furniture LF-214A-ORANGEYELLOW-GG Vibrant Orange Tractor Seat and Chrome Stool
p1276
sL1277L
VFellowes Binding Machine, Comb, Pulsar E 300, Electric, with Starter Kit (5216701)
p1277
sL1278L
VSet of 24 pack LC75 High Yield Compatible Ink Cartridge Combo 12xBk, 4xC, 4xM &amp; 4xY
p1278
sL1279L
VPilot EasyTouch Retractable Ball Point Pens, Fine Point, Black Ink, Dozen Box (32210)
p1279
sL1280L
VStanley Bostitch EPS12HC SuperPro 6 Commercial Pencil Sharpener, 7.5&quot;h x 9&quot;d x 5&quot;w, gray, 1 Unit
p1280
sL1281L
VHandy Box Cutter, Tap Open/Tap Close, 12 per Box, Assorted
p1281
sL1282L
VBankers Box SmoothMove Basic Moving Boxes, Small, 16 x 12 x 12 Inches, 15-Pack (7713802)
p1282
sL1283L
VKodak 8237216 10XL Ink Cartridge - Black
p1283
sL1284L
VDixon Ticonderoga Wood-Cased Pencils, #2 HB, Yellow,  Box of 12 (13882)
p1284
sL1285L
VGenuine HP 74XL / 75XL&amp; Tri Color Ink Cartridge Combo Pack-Black
p1285
sL1286L
VPlantronics Audio 478 Stereo USB Headset (Audio 478)
p1286
sL1287L
VMead Spiral Notebook, College Ruled, 1 Subject, 70 Sheets,8 x 10.5 Inches, Assorted Colors (05512)
p1287
sL1288L
VBoard Dudes 22&quot; x 35&quot; Home Decor Cork Board (86040VA-4)
p1288
sL1289L
VLePage's USPS Single King/Queen Mattress Cover for Moving, 76 x 10 x 92 Inches (81491)
p1289
sL1290L
VHP 901XL CC654AN#140 Ink Cartridge-Black
p1290
sL1291L
VHP 74XL Ink Cartridge- Black
p1291
sL1292L
VPilot Namiki Standard Fountain Pen Ink, Black (69200)
p1292
sL1293L
VVTECH CS6114 DECT 6.0 Cordless Phone, White/Grey, 1 Handset
p1293
sL1294L
VScotch Packaging Tape with Dispenser, 2 Inches x 1000 Inches, Clear (142L)
p1294
sL1295L
VZebra 42630 Zebra GR8 Gel Retractable Roller Ball Pen, Red Barrel/Ink, Med Pt, 0.70 mm, Box of 12
p1295
sL1296L
VCompatible Ink Cartridge Replacement for Canon PGI225 and CLI226 (1 Large Black 1 Small Black 1 Cyan 1 Magenta 1 Yellow) 5 Pack
p1296
sL1297L
VAvery Inkjet Shipping Labels with Paper Receipts, 5.5 x 8.5 Inch, White, Pack of 25 Labels with 25 Receipts (8127)
p1297
sL1298L
VMead Pretty Please Notebook, 10-1/2 x 8-Inches , 1-Subject, 80 sheets, College Ruled, Large Flowers (72008)
p1298
sL1299L
VSharpie 1829201 Metallic Fine Point Permanent Marker, Assorted Colors, 6-Pack
p1299
sL1300L
VWilson Jones 368 Basic Round Ring Binder, 2&quot;, Blue (W368-44NBL)
p1300
sL1301L
VHP Officejet 6500A Plus e-All-in-One (CN557A#B1H)
p1301
sL1302L
VScotch Magic Office Tape and Refillable Dispenser, 0.75 Inch x 18 Yards, Clear, Six per Pack (6122)
p1302
sL1303L
VCanon LS-82Z Calculator
p1303
sL1304L
VInvisible Tape 3/4&quot; x 1000&quot; 1&quot; Core Clear 6/Pack
p1304
sL1305L
V16 Pack Compatible Canon CLI 8 , CLI-8 , CLI8 2 Green, 2 Cyan, 2 Photo Cyan, 2 Photo Magenta, 2 Magenta, 2 Red, 2 Yellow, 2 Small Black for use with Canon PIXMA Pro9000, PIXMA Pro9000 Mark II. PIXMA Pro 9000, PIXMA Pro 9000 Mark II. Ink Cartridges for inkjet printers. CLI 8C , CLI 8M , CLI 8R , CLI 8Y , CLI-8 C , CLI-8 M , CLI-8 Y , CLI-8C , CLI-8M , CLI-8R , CLI-8Y , CLI8 C , CLI8 M , CLI8 Y , CLI8C , CLI8M , CLI8R , CLI8Y
p1305
sL1306L
VBrother LC713PKS Innobella Standard Yield Ink Cartridge - 3 Pack - 1 Each of LC71C, LC71M, LC71Y - Retail Packaging-Cyan/Yellow/Magenta
p1306
sL1307L
VSharpie&reg; Rub-a-Dub Laundry Marker
p1307
sL1308L
VTEKwriterUSA Gelwriter Gel Pen Set with Rotating Stand, 100-Count (27131-D)
p1308
sL1309L
VBlake Printing Supply Remanufactured Ink Cartridges Replacement for Epson 127 (2x Black, 2x Cyan, 2x Magenta, 2x Yellow, 8-Pack)
p1309
sL1310L
VPentel EnerGel Deluxe RTX Gel Ink Pens, 0.7 Millimeter Metal Tip, Assorted Colors,  6 Pack (BL77BP6M)
p1310
sL1311L
VX-Acto Deluxe Heavy-Duty Electric Pencil Sharpener, Black with Gray Base, 1 Unit (1645)
p1311
sL1312L
VWinsome Wood 24-Inch Saddle Seat Counter Stool, Black
p1312
sL1313L
VBrother Printer MFC8950DW Wireless Monochrome Printer with Scanner, Copier and Fax
p1313
sL1314L
VBelkin 4-Feet MIXIT Micro USB Cable (Green), Compatible with Amazon Fire Phone
p1314
sL1315L
VGP Copy &amp; Print Paper, 8.5 x 11 Inches Letter Size, 92 Bright White, 20 Lb, 5 Reams/Carton (2500 Sheets) (998068C)
p1315
sL1316L
VSharpie 32893PP Ultra-Fine Point Permanent Marker, Assorted Colors, 24-Pack
p1316
sL1317L
VBIC Cristal Stic Ball Pen, Medium Point , 1.0 mm, Blue, 12 Pens (MS11-Blu)
p1317
sL1318L
VPilot Dr. Grip Center of Gravity Retractable Ball Point Pen, Medium Point, Black Ink, Grip Color May Vary, Single Pen (36184)
p1318
sL1319L
VBrother MFC-7820N 5-in-1 Network Monochrome Laser Multifunction Center
p1319
sL1320L
Vuni-ball Gel Grip Stick Medium Point Gel Pens, 12 Black Ink Pens(65450)
p1320
sL1321L
VAvery Permanent Square Label, White, Inkjet/Laser 1.5 x 1.5-Inches, Pack of 600, Use for QR Codes and Branding Your Packaging (22805)
p1321
sL1322L
VCanon 0621B016 CLI-8 3 Pack C/M/Y Value Pack
p1322
sL1323L
VSet of 13 Remanufactured HP 02 Ink Cartridge
p1323
sL1324L
VCanon LS-82Z Business Calculator
p1324
sL1325L
VSharpie 1810704 Brush Tip Permanent Marker, Assorted Colors, 12-Pack
p1325
sL1326L
VBrother DR360 Compatible Drum Unit for use with Brother DCP-7030, DCP-7040, HL-2140, HL-2170W, MFC-7340, MFC-7345N, MFC-7440N, MFC-7840W Printers
p1326
sL1327L
VCanon imageCLASS LBP6000 Compact Laser Printer
p1327
sL1328L
VHeritage Roll-Up Pencil Case (SPC36)
p1328
sL1329L
V15 Pack with CHIP Non-OEM Ink for PGI-225 CLI-226 Pixma ip4820 iP4920 MG5120 MG5220 MG5320 MG6120 MG6220 MG8120 MG8220 MX882
p1329
sL1330L
VVtech DECT 6.0 Expandable 2-Handset Cordless Phone System with Digital Answering Device and Caller ID (CS6229-2)
p1330
sL1331L
VDYMO 1752264 LabelWriter 450 Thermal Label Printer
p1331
sL1332L
VFiskars LED SureCut Rotary Trimmer (01-005419)
p1332
sL1333L
VScotch Bubble Mailer, 8.5 x 11 Inches, Size #2, 25-Pack (7914-25-CS)
p1333
sL1334L
VQuality Park Sealed Air Jiffy Lite Cushioned Mailers, Self Seal, #2, 8.5 x 12 Inches, Pack of 100 (SEL39093)
p1334
sL1335L
VNoodler's Bulletproof Blue Ghost Invisible Fountain Pen Ink
p1335
sL1336L
VCanon 104/FX9 Compatible Toner Cartridge for use in Canon imageCLASS D420 D480 MF4150 MF4270 MF4350D MF4370DN MF4690 &amp; FAXPHONE L90 L120 - Black
p1336
sL1337L
VSwingline Stratus Acrylic Document Tray, 13.25 x 10.75 x 2.5 Inches, Clear (S7010132)
p1337
sL1338L
VSwingline GBC Fusion 3100L 12 Inch Laminator, 1 Minute Warm-up, 3-7 Mil (1703076)
p1338
sL1339L
VPrismacolor Premier Ebony Graphite Sketching Pencil, Jet Black, Extra Smooth, Dozen - 14420
p1339
sL1340L
VVelcro Industrial Strength Sticky-Back Hook &amp; Loop Fasteners, Black, 2inX15 Foot Roll (VEK90197)
p1340
sL1341L
VElmer's Disappearing Purple School Glue Sticks, 0.24 Ounces Each, 30-Count Class Pack (E555)
p1341
sL1342L
V100 - 10x13 VALUEMAILERS POLY MAILERS ENVELOPES BAGS 10 x 13
p1342
sL1343L
VCasio Advanced Scientific Calculator with 2-Line Natural Textbook Display (FX-115ES)
p1343
sL1344L
VAvery Permanent Glue Stic, Pack of 18 (98089)
p1344
sL1345L
VCalifornia Office Supply- 50 #5 10.5x16 KRAFT BUBBLE MAILERS PADDED ENVELOPES #5
p1345
sL1346L
VAurora HC110X Dual Power Compact Style 8 Digit Hardcase Calculator
p1346
sL1347L
VDYMO 1752265 LabelWriter 450 Turbo Thermal Label Printer
p1347
sL1348L
VCanon 4508B002 CanoScan LiDE210 Scanner
p1348
sL1349L
VVelcro Sticky-Back Hook and Loop Fastener Tape with Dispenser, 3/4-Inch by 5-Feet Roll, Black
p1349
sL1350L
VCanon PG-210 XL CL-211 XL and 4-Inches x 6-Inches - 50 Sheets
p1350
sL1351L
VGP Copy &amp; Print Paper, 8.5 x 11 Inches Letter Size, 92 Bright White, 20 Lb, Ream of 500 Sheets (998067R)
p1351
sL1352L
VAmazonBasics Remanufactured Ink Cartridge Replacement for Brother LC51BK Black
p1352
sL1353L
VSmead Jackets, Letter Size, Straight Cut, Reinforced Tab,  2-Inch Expansion, Manila, 50 Per Box (75560)
p1353
sL1354L
VPentel R.S.V.P. Ballpoint Pen, 0.7mm Fine Tip, Black Ink, Box of 12 (BK90-A)
p1354
sL1355L
VSharpie Fine Point Permanent Markers, 12 Green Markers(30004)
p1355
sL1356L
VDYMO 1790417 500TS Touchscreen Handheld Label Maker
p1356
sL1357L
VEpson C11CD31201 Expression Premium XP-610 Wireless Color Photo Printer with Scanner and Copier
p1357
sL1358L
VElsa L Pleather Letter Tray, Rec Stitch  (37266)
p1358
sL1359L
VPaper Mate 70672 Write for Hope Retractable Ballpoint Pens, Black, 12-Pack
p1359
sL1360L
VPost-it Full Adhesive Roll, 1 x 400, Pink, 1-Pack ,2650-P
p1360
sL1361L
VQuartet Magnetic Pencil/Pen Cup Holder, White (48120-WT)
p1361
sL1362L
VDeluxe Chalk Keeper Holder
p1362
sL1363L
VLogitech Speaker Lapdesk N700
p1363
sL1364L
VLiquid Paper Smooth Coverage Correction Fluid, 3 Pack (5633115)
p1364
sL1365L
VSmead Pockets, Letter Size, Straight Cut, 5-1/4 Inch Expansion, Rollover Tyvek at Top-reinforced sides, Redrope, 10 Per Box (73234)
p1365
sL1366L
VLiquid Paper Fast Dry Correction Fluid, 3 Pack(5643115)
p1366
sL1367L
VAmazonBasics Remanufactured  Toner Cartridge Replacement for Brother TN570  High Yield Black
p1367
sL1368L
VPaper Mate Clear Point 0.5mm Mechanical Pencil Starter Set Assorted Color (34666PP)
p1368
sL1369L
VCanon CL-241XL Office Products FINE Color Cartridge Ink
p1369
sL1370L
VPanasonic KXTG6842B DECT 6.0 2-Handset High Quality Phone System with Answering Capability
p1370
sL1371L
V10 Pack compatible Ink PGI-5BK, CLI-8BK, CLI-8C, CLI-8M, CLI-8Y Inkjet Cartridge for Canon PIXMA MP-500, MP-530, MP-830 MP-950 MP-960 MP-970 MX-850, PIXMA iP4200, iP4500, iP5200
p1371
sL1372L
VBrother Printer MFCJ450DW Easy-To-Use Inkjet All-In-One Color Printer with Scanner, Copier and Fax
p1372
sL1373L
VCanon KP-108IN Color Ink Paper Set 3115B001
p1373
sL1374L
V3M Permanent Adhesive Address Labels, 1 x 2.62 Inches, Inkjet, White, 750 per Pack (3200-A)
p1374
sL1375L
VPost-it Pop-up Notes Dispenser for 3 x 3-Inch Notes, Wall or Desk Mountable
p1375
sL1376L
VSmead Poly String and Button Booklet Envelope, 11.625 x 9.75 x 1.25 Inches, Clear, 5 per Pack (89521)
p1376
sL1377L
VScotch High Performance Masking Tape 232 Tan, 18 mm x 54.999 m (Pack of 1)
p1377
sL1378L
VEpson WorkForce WF-7620 Wireless and WiFi Direct, All-in-One Wide-Format Color Inkjet Printer, Copier, Scanner, 2-Sided Auto Duplex, ADF, Fax. Prints from Tablet/Smartphone. AirPrint Compatible. (C11CC97201)
p1378
sL1379L
VPost-It Recycled Super Sticky Lined Notes , 4 x 6-Inches, Assorted Tropical Colors, 4-Pads/Pack  (4621-4SST)
p1379
sL1380L
VScotch&Acirc;&reg; Removable DoubleSided Tape 3/4 inch x 400 inches Dispenser  (667)
p1380
sL1381L
VQuartet Wireless Remote and Laser Pointer, Class 2, Small Venue, Black (84502)
p1381
sL1382L
VCanon PIXMA PRO-1 Professional Inkjet Printer
p1382
sL1383L
VCanon PGI-5Bk 3 Pack Compatible Inkjet Cartridge w/ Chip for Pixma MP500 MP530 MP600 MP800 iP4-Black
p1383
sL1384L
VBrother TN330 Black Toner Cartridge - Retail Packaging
p1384
sL1385L
VFive Star Zipper Binder Plus Multi Access File, 2-Inch Capacity, 13.75 x 12.12 x 3.5 Inches, Blue (72534)
p1385
sL1386L
VSmart Weigh ACE110 Digital Shipping Postal Scale (110lb.) with Extendable Cord and Bright Blue Backlight Display, Batteries and AC Adapter Included
p1386
sL1387L
VFAVI FP3-BL 2.4GHz Wireless Presenter Mouse with Laser Pointer
p1387
sL1388L
VFujitsu&nbsp;ScanSnap S1100 CLR 600DPI USB Mobile Scanner (PA03610-B005)
p1388
sL1389L
VFellowes Twist and Bind All-In-One Machineless Binding Kit, 4 Pack (5226304)
p1389
sL1390L
VBrother TN-650 High Yield Toner Cartridge
p1390
sL1391L
VAvery Internet Shipping Labels for Laser Printers with TrueBlock Technology, 5.5 x 8.5 Inches, White, Box of 200 (05126)
p1391
sL1392L
VAT-A-GLANCE 2014 Weekly Appointment Book, 8.25 x 10.88 x .56 Inches, Black (70-950-05)
p1392
sL1393L
VHP OfficeJet 6210 All-in-One Printer
p1393
sL1394L
VAvery Page Markers, 0.5 Inch, Bright Colors, 250 Markers (22549)
p1394
sL1395L
g399
sL1396L
V5pk NON-OEM CLI-221 PGI-220 compatible Ink Cartridge With CHIP
p1395
sL1397L
VAmazonBasics 12-Sheet Cross-Cut Paper, CD, and Credit Card Shredder
p1396
sL1398L
VAvery Easy Peel Address Labels, Inkjet Printers, White, 1 x 2.5/8 Inch, Box of 750 labels (25 Sheets / 30 per Sheet) (08160)
p1397
sL1399L
VHP OJ 150 Mobile Wireless Color Printer with Copier
p1398
sL1400L
VGE 28821FE2 Dect 6.0 Digital Cordless Phone and Digital Answering System Featuring GOOG-411 with 2 Handsets
p1399
sL1401L
VTOPS Prism Plus 100% Recycled Legal Pad, 5 x 8 Inches, Perforated, Assorted Colors: Gray, Orchid, Blue, Legal/Wide Rule, 50 Sheets per Pad, 6 Pads per Pack (63116)
p1400
sL1402L
VPost-it Notes, 3 x 3-Inches, Canary Yellow, 4-Pads/Pack
p1401
sL1403L
VStained by Sharpie Brush Tip Fabric Markers, 8 Colored Markers (1779005)
p1402
sL1404L
VBrother PT-P700 PC Connectable Label Maker for PC and MAC
p1403
sL1405L
VHP 56 C9319FN#140 Ink Cartridge in Retail Packaging, Twin Pack-Black
p1404
sL1406L
VSophia Global 10 Pack Compatible Ink Cartridge Replacement for Canon PGI-220 and CLI-221 (2 Large Black C-220, 2 Small Black C-221, 2 Cyan, 2 Magenta, 2 Yellow)
p1405
sL1407L
VAvery Shipping Labels with TrueBlock Technology, Inkjet Printers, 5.5 x 8.5 Inches, White, Pack of 50 (8126)
p1406
sL1408L
VAvery Easy Peel Address Labels for Laser Printers, 1 x 2.625 Inches, White, Pack of 750 (05260)
p1407
sL1409L
VLapGear 45303 Multi-Purpose Jumbo LapDesk
p1408
sL1410L
VBrother Printer LC752PKS 2 Pack of LC-75BK Cartridges Ink - Retail Packaging
p1409
sL1411L
VUni-ball Diamond Infused Leads, 0.5 mm, 40 Leads (1753230)
p1410
sL1412L
VWestcott iPoint Curve Axis Electric Pencil Sharpener for School or Office (15511)
p1411
sL1413L
V3M Mouse Pad with Gel Wrist Rest, Sunrise Design (MW308SR)
p1412
sL1414L
VBLUE Monkey Fist Self Defense Keychain 1&quot; Steel Ball Double Line 550lb Tensile Strentgh Military Paracord (Length 6 5/8&quot;) by Muzitao&copy;
p1413
sL1415L
VSmead 3 Section SuperTab Folder, Letter Size, Assorted Colors, 12 per Pack (11905)
p1414
sL1416L
VDixon Ticonderoga Tri-Write Triangular Standard Size #2 Pencils, Box of 12, Yellow (13856)
p1415
sL1417L
VOriginal HP 97 Large Tri-color Ink Cartridge in Retail Packaging
p1416
sL1418L
VS.P. Richards Company Package Sealing Tape, 3&quot;Core, 1-7/8 x 164 Feet, 6-Pack, Clear (SPR60041)
p1417
sL1419L
VRubbermaid Home 420087BISQU Step Stool
p1418
sL1420L
VPanasonic KX-TG4732B DECT 6.0 Cordless Phone with Answering System, Black, 2 Handsets
p1419
sL1421L
VFilexec 3 Ring Binder, 1 Inch Capacity, Opaque, Letter size, Pack of 4, Blue, Hot Pink, Purple, Green (50162-6497)
p1420
sL1422L
VPanasonic KX-TGA660B Extra Handset for 762X and 663X Series Cordless Phones, Black
p1421
sL1423L
V100 - #0 - 6x10 POLY BUBBLE MAILERS PADDED ENVELOPES
p1422
sL1424L
VHP 901 Black Original Ink Cartridge
p1423
sL1425L
VCanon Laser imageCLASS MF4880dw Wireless Monochrome Printer with Scanner, Copier and Fax
p1424
sL1426L
VSmead Cascading Vertical Wall Organizer, 6 Pockets, Poly, Gray with Bright Color Pockets (92060)
p1425
sL1427L
VSticky Ass Glue SAG4OZ Waterproof Stubbornly Strong Glue, 4-Ounce
p1426
sL1428L
VCasio FX-300ES Plus Scientific Calculator
p1427
sL1429L
VPilot Varsity Disposable Fountain Pens, 7-Pack Pouch, Assorted Color Inks (90029)
p1428
sL1430L
VPanasonic DECT 6.0-Series 3-Handset Cordless Phone System with Answering System (KX-TG1033S)
p1429
sL1431L
VPM Company Perfection POS/Calculator Rolls, 2.25 Inches x 150 Feet, White, 12/Pack (08835)
p1430
sL1432L
VScotch Thermal Laminating Pouches, 5 Inches x 7 Inches, 20 Pouches (TP5903-20)
p1431
sL1433L
VFive Star Composition Book, 100 College-Ruled Sheets, 9.75 x 7.5 Inch Sheet Size, Berry Pink/Purple (72492)
p1432
sL1434L
VCanon CLI-42 LGY Light Gray Ink Tank
p1433
sL1435L
VLapWorks 10&quot; Heavy Duty Swivel With Steel Ball Bearings for Indoor/Outdoor Use With Flat Panel Monitors, Tv's, Potted Plants and Stereo Speakers
p1434
sL1436L
VSmead Easy Slide Tab, 1/3-Cut, Clear, 18 Per Pack (64626)
p1435
sL1437L
VSmead Flex-i-Vision Hanging File Folders, Letter Size, 1/5 Cut Tab, Green, 25 per Box (64055)
p1436
sL1438L
VBrother TN460 High Yield Toner Cartridge - Retail Packaging
p1437
sL1439L
VCanon CLI-226 4550B001 Gray Ink Tank
p1438
sL1440L
VHP Envy 5530 Inkjet Multifunction Printer - Color - Photo Print - Desktop
p1439
sL1441L
VQuality Park 4x6 Photo Envelopes, Redi-Strip, 4.5 Inches x 6.25 Inches, 24 lb, White Wove, Box of 50 (10742)
p1440
sL1442L
VBrother Innobella LC51BK Ink Cartridge, 500 Page Yield, Black
p1441
sL1443L
Vuni-ball Impact RT Retractable Bold Point Gel Pens, 12 Black Ink Pens (65870)
p1442
sL1444L
VHP Multipurpose Copy/Laser/Inkjet Paper, 96 Brightness, 20 lb, Letter Size (8.5 x 11), 500 Sheets (11200-0)
p1443
sL1445L
VBlack n' Red Casebound Hardcover Notebook, 11-3/4 x 8-1/4 Inches, Black, 192 sheets (D66174)
p1444
sL1446L
VMead Spiral Notebook, 3-Subject, 120-Count, Wide Ruled, Blue (72223)
p1445
sL1447L
VFellowes Saturn SL 9.5 Inch Laminator (5213201)
p1446
sL1448L
VHP&nbsp;Photosmart&nbsp;A646&nbsp;Compact&nbsp;Photo&nbsp;Printer&nbsp;(CC001A#B1H)
p1447
sL1449L
VExpo Low Odor Chisel Tip Dry Erase Markers, 4 Colored Markers(80174)
p1448
sL1450L
VTexas Instruments TI-1795 SV Standard Function Calculator
p1449
sL1451L
VCanon Pixma iP4500 Photo Inkjet Printer (2171B002)
p1450
sL1452L
VFellowes Laminator Mars 125,  9.5-Inch  (5215501)
p1451
sL1453L
VRubbermaid Small Step Stool - 12.2x10x7.1 in\u000a31.1x 25.4x18.1 cm,gray
p1452
sL1454L
VCanon LBP6200D Monochrome Printer
p1453
sL1455L
VHP LaserJet 1020 Printer (Q5911A#ABA)
p1454
sL1456L
VBrother ImageCenter ADS-2000 High Speed Document Scanner, Black
p1455
sL1457L
VBoard Dudes 11&quot; x 14&quot; Plastic Framed Magnetic Calendar (12032UA-4)
p1456
sL1458L
VPost-it&reg; Super Sticky Removable File Folder Labels, 0.66 x 3.437 Inches, White, 1500 per Pack (2100-F)
p1457
sL1459L
VpiQx Xcanex Portable Book and Document Scanner
p1458
sL1460L
VBIC Round Stic Ball Pen, Medium Point, 1.0 mm, Black, 60 Pens (GSM609-Blk)
p1459
sL1461L
VTeacher Created Resources Mini Happy Face Stickers Valu-Pak, Multi Color (6633)
p1460
sL1462L
VBrother Laminated Tape Black on White, 18mm (TZe241) - Retail Packaging
p1461
sL1463L
VSophia Global Compatible Ink Cartridge Replacement for PGI-225 CLI-226 PIXMA printers including MX882 MG8220 MX892 MG6220 (2 Large Black, 1 Small Black, 1 Cyan, 1 Magenta, 1 Yellow)
p1462
sL1464L
VCanon imageCLASS MF3240 Monochrome Laser All-in-One Printer
p1463
sL1465L
VBIC Triumph 730RT Gel Pen (0.7mm), Black, 12ct (RTR7711-Blk)
p1464
sL1466L
VBankers Box Stor/File Medium-Duty Storage Boxes with Lift-Off Lid, Letter, 12 Pack (00701)
p1465
sL1467L
VBrother Printer MFCJ4410DW  Business Smart Multi-Function Inkjet and Wireless Color Photo Printer with Scanner, Copier and Fax
p1466
sL1468L
VOoma Telo Free Home Phone Service VoIP Phone and Device
p1467
sL1469L
V10C Ink Cartridge - Color
p1468
sL1470L
VOfficemate Recycled 2-In-1 Heavy Duty Tape Dispenser, Black (96690)
p1469
sL1471L
VSeville Classics Mobile Laptop Desk Cart
p1470
sL1472L
VNumber 1 in Service RFID Blocking Credit Card Secure Sleeve and Passport Case Set (10x CC Sleeve and 2x Passport Holding Sleeve)
p1471
sL1473L
ViScholar Gross Pack Pencils, #2, Yellow,  Box of 144 (33144)
p1472
sL1474L
VCanon Office Products MX472 Wireless Office All-In-One Inkjet Printer
p1473
sL1475L
VTEKwriterUSA Gelwriter Gel Pen Set with Pop-up Case, 100-Count (27104-D)
p1474
sL1476L
VRolodex FG9C9500BLA Nestable Wire Mesh Freestanding Desktop Copyholder, Stainless Steel, Black
p1475
sL1477L
VVerbatim HP C9730A Remanufactured Toner Cartridge for 5500, 5550 Series, Black 95351
p1476
sL1478L
VAvery Easy Peel White Mailing Labels for Laser Printers, 1 x 2.62 Inch, Box of 3000 Labels (5160)
p1477
sL1479L
VOfficemate Clipboard, Letter Size, 3 pack (83130)
p1478
sL1480L
VSP400 Smart-Pointer (Silver) 2.4Ghz RF Wireless Presenter with mouse function and laser pointer for Mac and PC
p1479
sL1481L
VCanon imageFORMULA P-215 Scan-tini Personal Document Scanner
p1480
sL1482L
VScotch&reg; Removable Tape 811-2PK, 3/4-inch x 1296 Inches, 2-Pack
p1481
sL1483L
VBrother LC61CL 3-Pack Ink Cartridge, 500 Page-Yield, Cyan Magenta Yellow
p1482
sL1484L
VPost-it Pop-up Note and Flag Dispenser for 3 x 3-Inch Notes, Includes Canary Yellow Notes and two Flag Dispensers.
p1483
sL1485L
VEpson Artisan 710 Wireless Color Inkjet All-In-One Printer (C11CA53201)
p1484
sL1486L
VCanon PIXMA MG5420 Wireless Color Photo Printer with Scanner and Copier
p1485
sL1487L
VBrother DS-820W Wireless Document Scanner
p1486
sL1488L
VCanon 2168B002&nbsp;CanoScan&nbsp;8800F&nbsp;Color Image&nbsp;Scanner
p1487
sL1489L
VAvery Removable Labels, Rectangular, 1 x 3 Inch, White, Pack of 72 (06728)
p1488
sL1490L
VEpson WorkForce WF-3620 Wireless and WiFi Direct All-in-One Color Inkjet Printer, Copier, Scanner, 2-Sided Auto Duplex, ADF, Fax. Prints from Tablet/Smartphone. AirPrint Compatible. (C11CD19201)
p1489
sL1491L
VOfficemate Breast Cancer Awareness PVC Free Giant Color Coated Paper Clips, 80per Tub, Pink (08908)
p1490
sL1492L
VSwingline Optima 45 Electric Stapler, 45 Sheet Capacity, Silver (S7048209)
p1491
sL1493L
VHP 11310-0 HP Premium Choice Laserjet Paper, White, 32-lb., 8-1/2&quot; x 11&quot;, 500 Sheets/ream
p1492
sL1494L
VAvery Half-Fold Greeting Cards for Inkjet Printers, 5.5 inches x 8.5 inches, White, Matte, Pack of 20 (03265)
p1493
sL1495L
VBrother Printer LC71BK Standard Yield Black Ink
p1494
sL1496L
VPost-it Notes Cube, 1 7/8 x 1 7/8-Inches, Bright Colors, 400-Sheets/Cube, 3-Cubes/Pack
p1495
sL1497L
VAvery Removable Window and Wall Signage, InkJet, 8.5 x 11-Inches, White, Pack of 10 (22800)
p1496
sL1498L
VHP LaserJet P1006 Printer
p1497
sL1499L
V6 Pack Compatible PGI-225BK/CLI-226BK/CLI-226C/CLI-226M/CLI-226Y/CLI-226GY compatible ink cartridges with chips for Canon Pixma MG6120/MG6220/MG8120/MG8120B/MG8220
p1498
sL1500L
VRolodex Mesh Collection Desk Organizer, Black (22171)
p1499
sL1501L
VSmead Hanging FasTab Folder, Legal, 1/3 Cut Tab, Moss, 20 per Box (64083)
p1500
sL1502L
VEpson B11B206201 WorkForce DS-30 Portable Document Scanner
p1501
sL1503L
VBlack Carbon Mill Finish Paper, 8-1/2 x 11-1/2, 10 Sheets
p1502
sL1504L
VBoise Fireworx Color Copy/Laser Paper, 20 lb, Letter Size (8.5 x 11), Crackling Canary, 500 Sheets (MP2201-CY)
p1503
sL1505L
VNational Hardware V238 4&quot;  Kickdown Door Stops in White
p1504
sL1506L
Vbasyx by HON HVL532 Mesh High-Back 2-Way Arms Task Chair, Black
p1505
sL1507L
VOfficemateOIC Mini Binder Clips, Assorted Colors, 60 Clips per Tub (31024)
p1506
sL1508L
VOnyx Stick Roller Ball Pens, Micro Point, Black Ink, Pack of 12
p1507
sL1509L
VBlack n' Red Casebound Notebook, Ruled, 8.25 x 5.875 Inches, 96 Pages (192 Sides) (E66857)
p1508
sL1510L
VQuartet Arc Cubicle Combination Board, 30&quot; x 18&quot;, Whiteboard/Cork Surface, Aluminum Frame (ARCCB3018)
p1509
sL1511L
VDixon Ticonderoga Pre-Sharpened Wood-Cased Pencils, #2, Yellow,  Box of 12 (13806)
p1510
sL1512L
VPost-it Flags Value Pack, Assorted Colors, 280 Page Flags and 48 Arrows of 0.5 Inch per Pack (683-VAD1)
p1511
sL1513L
VBrother Printer LC103BK High Yield Cartridge Ink, Black
p1512
sL1514L
VSharpie 1747388 Stainless Steel Fine Point Permanent Marker
p1513
sL1515L
VAT-A-GLANCE Recycled Weekly Appointment Book, 8 x 11 Inches, Black, 2013 (70-950-05)
p1514
sL1516L
VInktoneram Remanufactured Ink Cartridges High Capacity Replacement for 127 (4x Black, 2x Cyan, 2x Magenta, 2x Yellow, 10-Pack)
p1515
sL1517L
VSmead SuperTab Folder, Letter, 11 Point, 1/3 Cut Tab, Assorted Colors, 100 Per Box (11961)
p1516
sL1518L
VPost-it Pop-up Notes Dispenser for 3 x 3-Inch Notes, Includes Canary Yellow Notes and Designer Insert
p1517
sL1519L
VZebra(R) Ballpoint F-Refills For F-301 Ultra,F-301 Pen, F-301 Compact, F-402 Pen, Fine Point, 0.7 mm, Black, Pack Of 2
p1518
sL1520L
VPilot G2 Retractable Premium Gel Ink Roller Ball Pens, Extra Fine Point, Black,  Box of 12 (31002)
p1519
sL1521L
VEpson WorkForce Pro WP-4530 Wireless All-in-One Color Inkjet Printer, Copier, Scanner, Fax, iOS/Tablet/Smartphone/AirPrint Compatible (C11CB33201)
p1520
sL1522L
VBrother Printer ADS2500W Document Scanner
p1521
sL1523L
VCanon Luster Photo Paper Letter, 50 Sheets (LU-101 LTR)
p1522
sL1524L
VClear Laminating Pouches, 5mm, 2-1/4&quot; x 3-3/4&quot;, 100/box,UNV84642
p1523
sL1525L
VAurora AS890C 8-Sheet Cross-Cut Paper/Credit Card Shredder with Basket
p1524
sL1526L
VCanon Laser imageCLASS MF4890dw Wireless Monochrome Printer with Scanner, Copier and Fax
p1525
sL1527L
VElmer's No-Wrinkle Rubber Cement, 8 Ounces, Clear (231)
p1526
sL1528L
VMead #10 Security Envelopes, 40 Count (75214)
p1527
sL1529L
VAT-A-GLANCE Recycled Desk Pad, 22 x 17 Inches, White, 2014 (SK24-00)
p1528
sL1530L
VBrother Printer Wireless Monochrome Printer, Dark Grey (HL2280DW)
p1529
sL1531L
VAvery Two-Side Printable Clean Edge Business Cards for Inkjet Printers, Matte, White, Pack of 200 (08871)
p1530
sL1532L
VCramer 1001-82 Kik Step Rolling Step Stool, Gray
p1531
sL1533L
VBrother DK-1201 Die-Cut Standard Address Labels
p1532
sL1534L
VSure Hook Hanging File Folder, Assorted ( Blue, Red, Yellow, Bright Green, Orange), Letter, 20 Folders Per Box, 6152 1/5 Asst
p1533
sL1535L
VWilson Jones Premium Single-Touch Locking D-Ring View Binder, 1 Inch Capacity, Letter Size, White  (W86610)
p1534
sL1536L
VWilson Jones Heavy Duty D-Ring View Binder with Extra Durable Hinge, 1 1/2-Inch, White (W385-34WPP1)
p1535
sL1537L
VHeavy Duty (100% Solid Metal FRONT &amp; BACK) Retractable Reel Key-ID-Badge-Belt Clip &amp; Chain Pull SOLD INDIVIDUALLY
p1536
sL1538L
VSakura 38176 10-Piece Gelly Roll Assorted Colors Blister Card Moonlight Gel Ink Pen Set
p1537
sL1539L
VX-ACTO ProX Electric Pencil Sharpener with SmartStop, Gray and Black (1612)
p1538
sL1540L
VFellowes Laminator Voyager 125, 12.5-Inch  with 10 Pouches (5218601)
p1539
sL1541L
VMemorex White CD Labels, Matte Finish. 300 Count (32020403)
p1540
sL1542L
VHP OfficeJet J4680 All-in-One Wireless Printer
p1541
sL1543L
VX-ACTO SharpX Classic Electric Pencil Sharpener, Black/Silver (1771)
p1542
sL1544L
VPaperPro StandOut Standup Stapler, Purple (1454)
p1543
sL1545L
VHP 920 CN066FN#140 Ink Cartridge Combo Pack
p1544
sL1546L
VLexmark MS410dn Mono Laser Printer
p1545
sL1547L
VScotch 3M Bubble Mailers Size 0 (6&quot; x 9&quot;) - 25ct
p1546
sL1548L
VPost-it Tabs, 2-Inch Solid, Assorted Primary Colors, 6-Tabs/Color, 4 Colors, 24-Tabs/Pack
p1547
sL1549L
VBIC Velocity Gel Retractable Pen, 0.7mm, Black Ink, 15 Count (RLCP151-Blk)
p1548
sL1550L
VFive Star Flex Hybrid NoteBinder, 1-Inch Capacity, Customizable Cover, 11.5 x 10.75 x 1.25 Inches, Berry Pink/Purple (72522)
p1549
sL1551L
V200 Half Sheet Shipping Labels for Laser/InkJet 5-1/2&quot; x 8-1/2&quot; (Same size as Avery 5126)
p1550
sL1552L
VCanon PGI-5 Pigment Ink Tank-Black
p1551
sL1553L
VBelkin Wave Rest Gel-Filled Cushion Wrist Pad -Black
p1552
sL1554L
VCanon PGI-5BK CLI-8 15-Pack Compatible Ink Cartridges w/ Chip for Pixma MP500 MP600 MP800 iP4200 iP4300 iP4500 iP5200 iP5200
p1553
sL1555L
V3M Easy Adjust Desk Mount Monitor Arm, Elegant Space Saving Design, For Monitors Up to 20 lbs and &lt;= 30 in, Silver
p1554
sL1556L
VSamsung ML-2165W Wireless Monochrome Printer
p1555
sL1557L
VPilot Acroball Pure White Retractable Hybrid Gel Ball Point Pens, Fine Point, Black Ink, Turquoise/Orange/Purple/Lime Accents, 4-Pack (31896)
p1556
sL1558L
VStabilo Point 88 Pen Sets rollerset set of 25
p1557
sL1559L
VLamy Refills Converter for Safari, Joy, AL-Star Fountain Pen - LZ24
p1558
sL1560L
VRoyal 112MX 12-Sheet Cross-Cut Shredder Shreds CD's with Console (Black)
p1559
sL1561L
VAvery Permanent Square Label, White, Inkjet/Laser, 2 x 2-Inches, Pack of 300 (22806)
p1560
sL1562L
VPanasonic KXTG6841B Dect_6.0 1-Handset 1-Line Landline Telephone
p1561
sL1563L
VHP 564XL Ink Cartridge in Retail Packaging-Cyan
p1562
sL1564L
VMead 2-Inch Zipper Binder with Zipper Storage, Blue (72192)
p1563
sL1565L
V3M Post-it Big Pad, Yellow, 11 x 11-Inches (BP11Y)
p1564
sL1566L
VSwingline LightTouch Reduced Effort Stapler, 50% Easier, 20 Sheets, Black (S7066402)
p1565
sL1567L
VHP 45/78 Ink Cartridge in Retail Packaging, Combo Pack
p1566
sL1568L
VPaper Mate Medium Point Retractable Gel Pens, 8 Colored Ink Pens (1746323)
p1567
sL1569L
V3M  Double-Sided Tape with Dispenser, Permanent, 1/2 X 250 Inches, Clear (MMM136)
p1568
sL1570L
VAmazonBasics Remanufactured Toner Cartridge Replacement for Brother TN360 High Yield Black
p1569
sL1571L
VColumbian CO148 (#10) 4-1/8x9-1/2-Inch Grip-Seal Security Tinted White Envelopes, 250 Count
p1570
sL1572L
VQuartet Magnetic Combination Board, 17 x 23 Inches, Dry-Erase and Cork, Black/Silver Frame (79370)
p1571
sL1573L
VRolodex Mesh Collection Mobile Device and Tablet Stand, Black (1866297)
p1572
sL1574L
VClover Wonder Clips, 50 Per Pack
p1573
sL1575L
VEpson 48 Inkjet Cartridge Yellow T048420
p1574
sL1576L
VUSPS Style 25 Lb x 0.1 OZ Digital Shipping Mailing Postal Scale with Batteries
p1575
sL1577L
VXyron 150 &quot;X&quot; Create-a-Sticker Machine Assorted Colors
p1576
sL1578L
VPaperPro 3-Hole Punch, 12 Sheet Capacity (2101)
p1577
sL1579L
VDigiOrange&reg; White Adhesive Labels for Laser/Inkjet Printers, 2.62&quot; x 1&quot; x 30, 3000 Labels
p1578
sL1580L
VPSC50 1.88 by 60-Yard Corru-Grip Premium Hot Melt Packing Tape, Clear
p1579
sL1581L
VIdentity Stronghold RFID Blocking Secure Sleeve / Case for Id &amp; Credit Card - Pack of 10
p1580
sL1582L
VFujitsu ScanSnap S1500 Instant PDF Sheet-Fed Scanner for PC
p1581
sL1583L
VVtech 6.0 2-Line Expandable Cordless Phone with Digital Answering System and Caller ID (DS6151)
p1582
sL1584L
VPower Adapter for P-touch
p1583
sL1585L
VBaumgartens Letter Opener/Envelope Slitter, Assorted Colors. Model # 67130 (Sold Singly)
p1584
sL1586L
VEpson T676XL420 DURABrite Ultra 676 Inkjet Cartridge-Yellow
p1585
sL1587L
VFive Star Wirebound Notebook, 5-Subject, 200 College-Ruled Sheets, 11 x 8.5 Inch Sheet Size, Teal (72458)
p1586
sL1588L
VBankers Box Tuff-Board Plastic Presentation Boards, Yellow, 2 Pack (3383202)
p1587
sL1589L
VPilot Varsity Disposable Fountain Pens, Black Ink, Dozen Box (90010)
p1588
sL1590L
VBIC Triumph 537RT Retractable Gel Medium Point Pen, 0.7mm, Black, 12 Pens
p1589
sL1591L
VDirt Devil Reconditioned Micro Shredr, 16-Sheets
p1590
sL1592L
VCanon 1900B002 CL-31 Color Ink Cartridge
p1591
sL1593L
VAvery&reg; White Shipping Labels for Laser Printers with  TrueBlock(TM) Technology, 2 inches x 4 inches, Pack of 250 (5263)
p1592
sL1594L
VSeville Classics Industrial All-Purpose Utility Cart, NSF Listed
p1593
sL1595L
VFaber-Castell Artists 3-Hole Pencil Sharpener
p1594
sL1596L
VACCO Gold Tone Jumbo Paper Clips, Smooth Finish, Steel Wire, 20 Sheet Capacity, 50 Clips per Box (A7072532)
p1595
sL1597L
VQuartet 4-Count Broad Dry-Erase Marker Kit, 1 Eraser, 2 oz. Spray Cleaner (51-659672Q)
p1596
sL1598L
VMead Filler Paper, College Ruled, 200 Sheets (15326)
p1597
sL1599L
VScotch&reg; Deluxe Desktop Tape Dispenser, C-40, Black, for 1 Inch Core Tapes
p1598
sL1600L
VAT&amp;T CL2939 Corded Phone, Black, 1 Handset
p1599
sL1601L
VOBi110 Voice Service Bridge and VoIP Telephone Adapter
p1600
sL1602L
VAT&amp;T EL51209 DECT 6.0 Cordless Phone, White/Grey, 2 Handsets
p1601
sL1603L
VLogitech G240 Cloth Gaming Mouse Pad for Low-DPI Gaming
p1602
sL1604L
VPilot Acroball Colors Retractable Hybrid Gel Ball Point Pens, Medium Point, Blue, 2-Pack (31831)
p1603
sL1605L
VQuartet Ultima Easel, Whiteboard/Flipchart, 27 x 34 Inches, Reversible, Black Frame (101EL)
p1604
sL1606L
VMead 1st Grade Problem Solving Workbook, 10 x 8-Inches, 96 Pages (48028)
p1605
sL1607L
VEpson Stylus NX625 Wireless All-in-One Color Inkjet Printer, Copier, Scanner (C11CA70271)
p1606
sL1608L
V3M Knob Adjust Keyboard Tray, Standard Platform, Gel Wrist Rest, Precise Mouse Pad, 17 in Track, Black
p1607
sL1609L
VBankers Box SmoothMove Moving and Storage Boxes, Small, 10 Pack (0062701)
p1608
sL1610L
V100 Universal Labels&reg; - Full Page Shipping Labels - Heavyweight label that will works in all Laser &amp; Inkjet Printers, 8.5&quot; x 11&quot; Inch Label, Vertically Slitted on Back for Easy Peeling - Matte White - 100 sheets
p1609
sL1611L
VCanon Photo Paper Plus Semi-Gloss 13&quot; x 19&quot; (50 Sheets) (SG-201 13X19)
p1610
sL1612L
VCanon 4530B001 PGI-225 Pigment Black Ink Tank
p1611
sL1613L
VSophia Global Compatible Ink Cartridge Replacement for PGI-225 CLI-226 PIXMA printers including MX882 MG8220 MX892 MG6220 (1 Large Black, 1 Small Black, 1 Cyan, 1 Magenta, 1 Yellow)
p1612
sL1614L
VSharpie Accent Tank-Style Highlighters, 6 Colored Highlighters (25076)
p1613
sL1615L
VAvery Plastic Durable Write-On Dividers, 5.5 x 8.5 Inches, 5 Tabs, 1 Set (16180)
p1614
sL1616L
VVelcro Velstrap Cinch Straps, 18 x 1 Inches, Black, 2 Pack (90107)
p1615
sL1617L
VGenuine HP CR318BN 951XL Combo 3-Color- 1 Cyan XL/ 1 Magenta XL/1 Yellow XL
p1616
sL1618L
VAvery Style Edge Insertable Plastic Dividers, 8-Tabs, 1 Set (11201)
p1617
sL1619L
VPost-It Super Sticky Notes , 3 x 3-Inches, White, 5-Pads/Pack  (654-5SSSC)
p1618
sL1620L
VNorazza DD3001 Data Destroyer CD/DVD Shredder
p1619
sL1621L
VPanasonic KP150BK Vertical Electric Pencil Sharpener, Black, One Unit
p1620
sL1622L
VPanasonic KX-TG6583T DECT 6.0 PLUS Link-to-Cell Bluetooth Cordless Phone Solution with 3 Handsets
p1621
sL1623L
VBIC Mechanical Pencil with Colorful Barrels, Fine Point (0.5 mm), 24 Pencils
p1622
sL1624L
VPlantronics Cordless Headset Phone - CT14
p1623
sL1625L
VBelkin F8E262-BLU WaveRest Gel Mouse Pad (Blue)
p1624
sL1626L
VBrownline 2015 Monthly Desk Pad, 22 x 17 Inches (C1731-14)
p1625
sL1627L
V9970 Indoor Carpet Tape 1.88-Inches x 36-Yards
p1626
sL1628L
VHP Advanced Photo Paper, Glossy (100 Sheets, 4 x 6 Inches, borderless)
p1627
sL1629L
V3M Adjustable Foot Rest, 22 Inch Wide Slip-resistant Platform (FR530CB)
p1628
sL1630L
VHP Photosmart Plus Wireless e-All-in-One Printer (CN216A#B1H)
p1629
sL1631L
VPaper Mate Tuff Stuff Eraser Stick (SN64801)
p1630
sL1632L
VAvery PocketTabs, 5.125 x 8.315 Inches, Half-Page Size, Pastel Blue, 5 per pack (16365)
p1631
sL1633L
VPanasonic KX-TG7643M dect 6.0 Link-to-Cell Bluetooth Cordless Phone with 3-Handsets
p1632
sL1634L
VSuncast C3600 Storage Trends Utility Base Cabinet,
p1633
sL1635L
VExpo Low Odor Chisel Tip Dry Erase Markers, 16 Colored Markers
p1634
sL1636L
VAmpad 20-208 Evidence 3&quot; x 5&quot; Narrow Perforated Writing Pads - White (12 Pads of 50 Sheets Each)
p1635
sL1637L
VScotch(TM) Thermal Laminating Pouches, 8.9 Inches x 11.4 Inches, 50 Pouches (TP3854-50)
p1636
sL1638L
VSwingline Heavy Duty Staple Remover, Spring-loaded, Satin Finish (S7037201A)
p1637
sL1639L
VCompatible Toner Cartridge to Replace TN360 (Black)
p1638
sL1640L
VPentel Super Hi-Polymer Lead Refill 0.7mm, HB, 36 Pieces of Lead (L50BP3HB-K6)
p1639
sL1641L
VHP 940XL C4908AN#140  Ink Cartridge in Retail Packaging-Magenta
p1640
sL1642L
VElsa L Pleather Desktop Organizer, Rec Stitch (34597)
p1641
sL1643L
VSophia Global Compatible Ink Cartridge Replacement for PGI-225 CLI-226 PIXMA printers including MX882 MG8220 MX892 MG6220 (2 Large Black, 2 Small Black, 2 Cyan, 2 Magenta, 2 Yellow)
p1642
sL1644L
VWestcott iPoint Ball Pencil Sharpener (15570)
p1643
sL1645L
VBrother HL4570CDW Color Laser Printer with Wireless Networking and Duplex
p1644
sL1646L
VLogitech Professional Presenter R800 with Green Laser Pointer
p1645
sL1647L
VAvery  Business Card Pages, Pack of 10 (76009)
p1646
sL1648L
VNEW Original HP 564 Black 2-PACK C2P51FN- Ink Cartridge SHIPS FAST - in Retail Box Packaging
p1647
sL1649L
VCanon CLI-221 2946B004 4-Color Value Pack in Retail Packaging-Black/Cyan/Magenta/Yellow
p1648
sL1650L
VAmazonBasics Remanufactured Toner Cartridge Replacement for Brother TN550 Black
p1649
sL1651L
VSouth Shore Morgan Storage Console, Royal Cherry
p1650
sL1652L
VVTech CS5111 1-Handset Cordless Phone, Silver/Black
p1651
sL1653L
VUniden DECT 6.0 Silver Cordless Digital Answering System with Caller ID and Four Handsets (DECT1580-4)
p1652
sL1654L
VTEKwriterUSA Gelwriter Gel Pen Sets with Carrying Case, 72-Count (27107-D)
p1653
sL1655L
VC-Line 13-Pocket Biodegradable Expanding File, Coupon Size, 1 Expanding File, Color May Vary (48410)
p1654
sL1656L
VCanon PIXMA MG8120 Wireless Inkjet Photo All-in-One Printer (4504B002)
p1655
sL1657L
VTOPS Quadrille Pad, Gum-Top, 8-1/2 x 11 Inches, Quad Rule (4 x 4), White Paper, 50 Sheets per Pad (33041)
p1656
sL1658L
VMaped Classic 1-Hole Metal Pencil Sharpeners,  Grey, 2-Pack (006602)
p1657
sL1659L
VColumbian White 9 x 12 Inch Catalog Grip-Seal Closure Envelopes 100 Count (CO920)
p1658
sL1660L
VAvery NoteTabs, 3 x 1.5 Inches, Neon Blue and Magenta, 16 per pack (16299)
p1659
sL1661L
VOffice Star Space Professional Air Grid Back Managers Chair with Eco Leather Seat and 2-to-1 Synchro Tilt Control
p1660
sL1662L
VHP 564XL CB324WN#140 Ink Cartridge in Retail Packaging-Magenta
p1661
sL1663L
VTOPS Message/Phone Call, Carbonless Duplicate, 2.75 x 5 Inches, 400-Set Book (74620)
p1662
sL1664L
VCanon 0307B001 CanoScan LiDE 25 Color Image Scanner
p1663
sL1665L
VPaperPro Evo Compact Stapler, 15 Sheet Capacity, Black (1493)
p1664
sL1666L
VOxford  Decoflex Letter Size Desktop File, 12-1/4W x 6D x 9-1/2H, Granite,1 Per Box, ( 23054)
p1665
sL1667L
VEconomy Bookends, Standard, 4 3/4 x 5 1/4 x 5, Heavy Gauge Steel, Black (2 Pairs)
p1666
sL1668L
VStanley Bostitch Contemporary Full Strip Stapler, Black (02257)
p1667
sL1669L
VHP Photosmart D7560 Printer
p1668
sL1670L
VKodak Glossy Photo Paper, 8.5 x 11 Inches, 100 Sheets per Pack (8209017)
p1669
sL1671L
VAvery Sticky Notes, Recycled, 3 x 3 Inches, Assorted Pastel Colors, 150 Sheets (22555)
p1670
sL1672L
VmStand Laptop Stand
p1671
sL1673L
VBuddybar Door Jammer
p1672
sL1674L
VQuartet Matrix Magnetic Modular Whiteboards, 34 Inches x 23 Inches, Silver Aluminum Frame (M3423)
p1673
sL1675L
VFive Star Xpanz Zipper Pencil Pouch, Blue (50518)
p1674
sL1676L
VScotch Magic Tape , 3/4 x 300 Inches, 3 Pack  (3105)
p1675
sL1677L
VBIC For Her Fashion Retractable Ball Pen, Medium Point, 1.0 mm, Assorted-Fashion Ink, 2 Count (FHAP21-ASST)
p1676
sL1678L
VAvery Shipping Label with Paper Receipt, Laser, TrueBlock Technology, White, 25 Sheets  (5327)
p1677
sL1679L
VHON Lota Mid-Back Work Chair with Mesh Back and Polished Aluminum Base for Office or Computer Desk, Black
p1678
sL1680L
VScotch Tear-by-Hand Tape, 1.88 Inches x 50 Yards, 2-Pack (3842-2)
p1679
sL1681L
VFellowes 32177 Powershred PS-77Cs Shredder
p1680
sL1682L
VCasio Scientific Calculator (FX260SLRSC)
p1681
sL1683L
VScotch Dispenser by Karim C-36-W, White (051141929866)
p1682
sL1684L
VVuPoint PDSC-IW441-VP Solutions Carrying Case for Magic Wand Portable Scanner
p1683
sL1685L
VPaper Shredder by Swingline, Duo Super Cross-Cut Junk Mail Shredder, 12 sheet (1757394)
p1684
sL1686L
VCustom Self Inking Rubber Stamp - 3 Lines (42A1539)
p1685
sL1687L
VCanon PIXMA CLI-8Bk Ink Tank-Black
p1686
sL1688L
VFisher Space Pen Bullet Chrome Finish, Gift Boxed (400)
p1687
sL1689L
VCanon PG-40/CL-41 (PG40/CL41) OEM Genuine Inkjet/Ink Cartridges Combo (One each: PG-40BK, CL-41Clr) 2 Pack - Retail
p1688
sL1690L
VMax Flat-Clinch Black Standard Stapler with 30 Sheet Capacity (HD-50DFBK)
p1689
sL1691L
VLivescribe Sky / Echo / Pulse Ink Refill 5-pack (4 Blue Med, 1 Red Fine)
p1690
sL1692L
VWestcott Axis iPoint Evolution Electric Pencil Sharpener for Home or Office (15510)
p1691
sL1693L
VAvery Shipping Labels with TrueBlock Technology, 2 x 4, White, 250/Pack, PK - AVE8163
p1692
sL1694L
VAvery Textured Wraparound Labels, White, 7.85 x 1.75 Inches, Pack of 50 (08217)
p1693
sL1695L
VAT&amp;T CL4940 1-Handset Landline Telephone with Large Display
p1694
sL1696L
VSteelSeries QcK Heavy Gaming Mouse Pad (Black)
p1695
sL1697L
VCardinal Expanding Pocket Dividers (CRD84013)
p1696
sL1698L
VSmead Hanging Folder without Tab, Letter, 2-Inch Expansion, Assorted Colors, 25 per Box (64264)
p1697
sL1699L
VOffice Impressions Self-Stick Notes, 3 x 3 Inches, Yellow, 100 Sheets per Pad (12 Pads per Pack) (82327)
p1698
sL1700L
VBrother HL-2070N Network Monochrome Laser Printer (Black)
p1699
sL1701L
VShredder Essentials 6-Sheet Diamond-Cut Shredder
p1700
sL1702L
VHP 92 C9512FN140 Ink Cartridge in Retail Packaging, Twin Pack-Black
p1701
sL1703L
VBazic 3-Ring Pencil Pouch with Mesh Window, 24 Assorted colors (Case of 24)
p1702
sL1704L
VDirt Devil Reconditioned Micro-Cut Shredder, 10-Sheets
p1703
sL1705L
VScotch Super Glue Liquid in Precision Applicator, 0.14 oz (AD124)
p1704
sL1706L
VSmartShopper Grocery List Organizer with Embedded Thermal Printer (SS-101)
p1705
sL1707L
VRolodex Laptop Stand (82410)
p1706
sL1708L
VAmazonBasics Thermal Laminator
p1707
sL1709L
VPanasonic KX-TG9344T Dect 6.0 Expandable Digital Cordless Phone with Answering System, Metallic Black, 4 Handsets
p1708
sL1710L
VEpson Expression Home XP-410 Small-in-One All-in-One Wireless Inkjet Printer (C11CC87201)
p1709
sL1711L
VSmead 1/3-Cut Assorted Position File Folders, Reinforced Tab, 11 Point, Letter Size, Manila, 100 Per Box (10334)
p1710
sL1712L
VOffice Star 4-Foot Resin Multipurpose Table, Light Grey
p1711
sL1713L
VEpson Claria B001EO6LKY Hi-Definition 99 Standard-capacity Inkjet Cartridge Cyan
p1712
sL1714L
VPost-it Notes in Neon Colors -- 1&amp;3/8in X 1&amp;7/8 -- 12 pads. 100 sheets/pad.
p1713
sL1715L
VPress-it Seal-it Security Envelope, 4 1/8 x 9 1/2, 20 lb, White, 45/Box
p1714
sL1716L
VFull SET (6 Cartridges) 98 High Capacity Genuine Cartridges for Epson Artisan 700 800 710 810
p1715
sL1717L
VBrother DS-600 DSMobile Scanner - Retail Packaging
p1716
sL1718L
VEpson Expression XP-600 Wireless Small-in-One Color Inkjet Printer, Copier, Scanner, 2-Sided Duplex. Prints from Tablet/Smartphone. AirPrint Compatible (C11CC47201)
p1717
sL1719L
VSmead Erasable FasTab Hanging Folders, 1/3-Cut Tab, Letter, Moss, 20 per Box (64032)
p1718
sL1720L
VBic Clic Stic Retractable Ballpoint Pen, Medium, Nonrefillable, Blue Ink, Box of 12
p1719
sL1721L
VEpson LabelWorks LW-300 Label Maker (C51CB69010)
p1720
sL1722L
VBOSTITCH STCRp2115 1/4 1/4 -Inch Leg, B8 Powercrown Staple (Pack of 5000)
p1721
sL1723L
VFellowes Powershred 73Ci 100% Jam Proof 12-Sheet Cross-Cut Shredder (4601001)
p1722
sL1724L
VScotch&reg; Bubble Mailer 7915-25-CS, 10.5 Inches x 15.25 Inches, Size 5, 25-Pack
p1723
sL1725L
VRope King ST-300 Sisal Twine 300 feet
p1724
sL1726L
VAvery NoteTabs, 3 x 3.5 Inches, Pastel Blue, 20 per pack (16330)
p1725
sL1727L
VAvery Removable Label Pad, 1 x 3 Inches, Assorted, Neon, 120 Labels (22010)
p1726
sL1728L
VSwingline Optima 70 Desk Stapler, Reduced Effort, 70 Sheets, Silver (S7087875)
p1727
sL1729L
Vuni-ball KuruToga Mechanical Pencil Starter Set (1751934)
p1728
sL1730L
VGarvey Standard Clothing, Attachment Tagging Gun (Tags-40948)
p1729
sL1731L
VBrother Compatible LC51 Bulk Set of 10 Ink Cartridges: 4 Black &amp; 2 each of Yellow / Cyan / Magenta
p1730
sL1732L
VAlvin &amp; Co. FC88 FRENCH CURVE SET, 8 piece set
p1731
sL1733L
VFaber Castell Faber-Castell Perfection Eraser Pencil with Brush
p1732
sL1734L
VFloortex Advantagemat Phthalate-Free PVC, Rectangular Chair Mat with Lip for Hard Floors, 36 x 48 Inches, Clear (PF129020LV), Amazon Exclusive
p1733
sL1735L
V12&quot; x 220ft Small 3/16&quot; Bubble Wrap
p1734
sL1736L
VHallmark Blank Greeting Cards Half-fold Matte Premium 20 Count
p1735
sL1737L
VPentel EnerGel Deluxe RTX Gel Ink Pens, 0.7 Millimeter Metal Tip, Violet Ink, 3-Pack (BL77BP3V)
p1736
sL1738L
VPost-it Pop-up Notes Dispenser for 3 x 3-Inch Notes, Black, Pebble Collection by Karim
p1737
sL1739L
VCompatible Ink Cartridge Replacement for Brother LC-75 (8 Black 4 Cyan 4 Magenta 4 Yellow) 20 Pack
p1738
sL1740L
VMajestic Scenery 36 Note Cards for $9.99 - 6 Different Styles Including Kraft Envelopes.
p1739
sL1741L
VPendaflex  Hanging Folder, Gray, 1/5 Tab, Letter, 25 Box, 4152 1/5 GRA
p1740
sL1742L
VHandStands 15S07 Super Mouse Pad
p1741
sL1743L
VBrother Desktop Office Labeler with AC Adapter (PT2030AD)
p1742
sL1744L
VSamsung SCX-4729FD/XAA Monochrome Printer with Scanner, Copier &amp; Fax
p1743
sL1745L
VFellowes Shredder Oil, 12 oz. Bottle with Extension Nozzle (35250)
p1744
sL1746L
VIntegra Correction Tape, Resist Tear, 1/5 x 394 Inches, 10 per Pack, Smoke Dispenser (ITA60233)
p1745
sL1747L
VFellowes Laminator Venus2 125 Laminator, 12.5-Inch  with 10 Pouches (5734801)
p1746
sL1748L
V100 - 9x12 Light Grey POLY VALUEMAILERS MAILERS ENVELOPES BAGS
p1747
sL1749L
Vbasyx by HON HVL210 Task Chair for Office or Computer Desk, Black
p1748
sL1750L
VSmead SuperTab Heavyweight File Folder, 14 Point, Letter Size, 1/3 Cut Tab, Manila, 50 Per Box (10401)
p1749
sL1751L
VSharpie Permanent Markers, Fine Point, Black, 12 Pack (30001)
p1750
sL1752L
VAvery Easy Peel Return Address Labels for Laser Printers, 0.5 x 1.75 Inches, White, Pack of 2000 (05267)
p1751
sL1753L
VPost-it Super Sticky Full Adhesive Notes, 3 x 3-Inches, Assorted Ultra Colors, 12-Pads/Pack (F330-12SSAU)
p1752
sL1754L
VCompatible HP Q2612X (AI-2612X) High-Capacity Toner Cartridge (HP 12X) for the HP LaserJet 1012/1018/1020/1022/1022N/1022NW/3050/M1319F printers, 3,000 Page-Yield, Black.
p1753
sL1755L
VSwingline High Capacity Desk Stapler, Reduced Effort, 60 Sheets, Black (S7077701)
p1754
sL1756L
VSmead 70211 12-Pocket Tiered Stadium File, Letter Size, Blue, 1 Each
p1755
sL1757L
VScotch Strapping Tape, 1.88  x 360 Inch, 1 Roll (50)
p1756
sL1758L
VCanon CLI-221 Ink Tank (Gray), Genuine Ink
p1757
sL1759L
VAvery File Folder Labels for Laser and Inkjet Printers, 0.6 x 3.43 Inches, White, Pack of 750 (08366)
p1758
sL1760L
VAmerican Weigh Scale Bt2-201 Digital Gram Pocket Grain Jewelry Scale, Black, 200 X 0.01 G
p1759
sL1761L
VECR4Kids School Stack Resin Chair, 16&quot; Seat Height, Desert Sand, 6-Pack
p1760
sL1762L
VAvery Steps Sticky Notes, Bold Colors, 150 Sheets (22592)
p1761
sL1763L
VFive Star Flex Hybrid NoteBinder, 1-Inch Capacity, 11.5 x 10.75 x 1.25 Inches, Berry Pink/Purple (72514)
p1762
sL1764L
VNeo-Flex LCD Arm
p1763
sL1765L
VSwingline Optima PowerEase Reduced Effort Stapler in Black (S7087850A)
p1764
sL1766L
VSparco Products 11877 Desk Organizer, 6 Compartments, 6 in.x6 in.x6 in., Black
p1765
sL1767L
VAmazonBasics Remanufactured Ink Cartridge Replacement for Brother LC41BK Black
p1766
sL1768L
VSwingline ClassicCut Lite Guillotine Trimmer, 12 Inch Cut Length, 10 Sheet Capacity (9312)
p1767
sL1769L
VPilot Precise P-500 Gel Ink Rolling Ball Pens, Extra Fine Point, Black Ink, Dozen Box (38600)
p1768
sL1770L
VScotch Permanent Mounting Tape, 1 Inch x 125 Inches
p1769
sL1771L
VBrother Printer MFCJ425W Wireless Color Photo Printer with Scanner, Copier and Fax
p1770
sL1772L
VEpson WorkForce 635 Color Inkjet All-in-One (C11CA69201)
p1771
sL1773L
VLapWorks 12&quot; Heavy Duty Swivel With Steel Ball Bearings for Indoor/Outdoor Use Or With Flat Panel Monitors and TV's
p1772
sL1774L
VPost-it Flags with On-the-Go Dispenser, Assorted Bright Colors, 1/2-Inch Wide, 100/Dispenser, 1-Dispenser/Pack
p1773
sL1775L
VSharpie Permanent Marker, Fine Point, Black, Pack of 5
p1774
sL1776L
VHP Officejet Pro 8610 Wireless Color Photo Printer with Scanner, Copier and Fax (A7F64A#B1H)
p1775
sL1777L
VAmpad Versa 6X9 Spiral Notebook - Wide Ruled Paper - Navy (25-635)
p1776
sL1778L
VSharpie Chisel Tip Permanent Markers: 2 Black Markers. Sanford Model 38262
p1777
sL1779L
VFive Star Locker Storage Pocket with Dry Erase Surface, 4 x 6.5 Inches, White with Red Pocket (72616)
p1778
sL1780L
VLexmark Interact S605 Wireless Multifunction Inkjet Printer with Web-Enabled Touchscreen
p1779
sL1781L
VLivescribe 3 x 5 Flip Notepad #1-4 (Black, 4-pack)
p1780
sL1782L
VSharpie Pen Fine Point Pen, 4 Colored Pens (1742662)
p1781
sL1783L
VPanasonic KX-TG6632B DECT 6.0 Cordless Phone with Answering System - 2 Handsets - Black
p1782
sL1784L
VSANOXY&reg; USB Wireless Remote Pointer Control PowerPoint Presentation Presenter Clicker Pen with Laser Pointer
p1783
sL1785L
VCardinal ClearVue Round Ring View Binders, 1.5-Inch Capacity, White, Case of 4 Binders (00319-C)
p1784
sL1786L
VEpson B11B193081&nbsp;Perfection&nbsp;V300&nbsp;Photo&nbsp;Scanner
p1785
sL1787L
VScotch&reg; Transparent Tape 600K6, 3/4-inch x 1000 Inches, 6-Pack
p1786
sL1788L
VCasio Scientific Calculator FX-115ES PLUS
p1787
sL1789L
V700 ft 3/16&quot; SMALL BUBBLE WRAP 12&quot; wide, perforated every 12&quot;, 700 total sq ft
p1788
sL1790L
VAltra 9234096 Laptop Cart, Cherry on Black
p1789
sL1791L
VWilson Jones 368 Basic Round Ring Binder, 1/2 Inch, Black (W368-13NB)
p1790
sL1792L
VCanon 2945B011 PGI-220 and CLI-221 CMY Ink with PP-201 (50 Sheets) Combo Pack
p1791
sL1793L
VX-ACTO SharpX Performance Electric Pencil Sharpener, Black/Silver (1772)
p1792
sL1794L
VTexas Instruments BA II Plus Professional Financial Calculator (Color May Vary)
p1793
sL1795L
VColumbian CO468 Grip-Seal Invitation Envelopes A9, 5-3/4&quot; x 8-3/4&quot; - White (Box of 100)
p1794
sL1796L
VLamy Fountain Pen - Al-Star Model - Fine Nib - Aluminum Body
p1795
sL1797L
VOfficemate Push Pins, Assorted Translucent Colors, 200 Count (35710)
p1796
sL1798L
VCanon PG-210XL Cartridge,Retail Packaging- Black
p1797
sL1799L
VBankers Box Stor/File 100% Recycled Extra Strength Storage Boxes, Letter/Legal, 12 Pack (12770)
p1798
sL1800L
VCon-Tact Brand Self-Adhesive Chalkboard Liner, 18-Inch by 6-Feet
p1799
sL1801L
VObus Forme Ergonomic Seat, Navy
p1800
sL1802L
VNeenah Astrobrights Premium Color Paper, 24 lb, 8.5 x 11 Inches, 500 Sheets, Cosmic Orange
p1801
sL1803L
VPaper Mate 12 Count #2 Mirado Black Warrior Lead Pencils, Medium Soft (2254)
p1802
sL1804L
VCanon PGI-220 Ink Tank in Retail Packaging-Black
p1803
sL1805L
VEpson Stylus CX9400Fax Color All-in-One Printer
p1804
sL1806L
VTombow Mono Mini Model Correction Tape, 0.16 x 236 Inches, White, 10 per Pack (68722)
p1805
sL1807L
VCanon PIXMA MX420 Wireless Office All-in-One Printer (4789B018)
p1806
sL1808L
VInnovera Gel Mouse Pad with Wrist Rest, Nonskid Base, 8-1/4 x 9-5/8 - Blue
p1807
sL1809L
VSparco 90206 3-Tier Steel Mesh Desk Tray, Black
p1808
sL1810L
VFellowes Binding Machine, Comb, Electric,  Galaxy E 500 with Starter Kit (5218301)
p1809
sL1811L
VPack-Kit 90292 PhysiciansCare Titanium Bonded Bandage Shears, 7&quot; Bent, Gray/Yellow
p1810
sL1812L
VPrintronic Compatible Ink Cartridge Replacement for Canon PGI-250XL CLI-251XL 6432B001 6448B001 6449B001 6450B001 6451B001 (1 Large Black 1 Small Black 1 Cyan 1 Magenta 1 Yellow) 5 Pack for Pixma IP7220 MG5420 MG6320 MX722 MX922
p1811
sL1813L
VLamy Vista Fountain Pen Demonstrator, Clear Fine Nib (L12F)
p1812
sL1814L
VAvery White EcoFriendly Address Labels, 1 x 2.625 Inches, Box of 750 (48160)
p1813
sL1815L
VCanon imageFORMULA P-150 Scan-tini Personal Document Scanner
p1814
sL1816L
VCanon imageFORMULA DR-C125 Office Document Scanner
p1815
sL1817L
VWestcott Axis iPoint Evolution Electric Heavy Duty Pencil Sharpener (15509)
p1816
sL1818L
VMead Organizher Hanging Magnetic Storage Pockets, Small, 6 x 10 Inches, Gray with Floral Accents (98048)
p1817
sL1819L
VHP 21 Ink Cartridge in Retail Packaging, Twin Pack-Black
p1818
sL1820L
VThe Classics Stainless Steel Ruler with Cork Backing (TPG-152), 12 Inches
p1819
sL1821L
VHP 940XL C4907AN#140 Ink Cartridge in Retail Packaging-Cyan
p1820
sL1822L
VSharpie Pen Fine Point Pen, 6 Colored Pens (1751690)
p1821
sL1823L
VX-ACTO 12-Inch Base Guillotine Style Plastic Paper Trimmer with Carrying Handle, 10 Sheet Capacity, Black (26232)
p1822
sL1824L
VBrother ADS1000W Compact Color Desktop Scanner with Duplex and Wireless Networking
p1823
sL1825L
VScotch Restickable Tabs, 1 x 1 Inches, 18 Squares (R100)
p1824
sL1826L
VPentel Wow Retractable Ballpoint Pen, Medium Line, Pink Ink, Box of 12 (BK440-P)
p1825
sL1827L
VBelkin Standard Mouse Pad (Gray)
p1826
sL1828L
V3M Scotch Heavy Duty Mounting Tape, 1-Inch by 50-Inch
p1827
sL1829L
VAvery Removable Labels, Rectangular, 0.5 x 0.75 Inches, White, Pack of 525 (6737)
p1828
sL1830L
VStaedtler Battery Operated Eraser
p1829
sL1831L
V3M Precise Mouse Pad with Repositionable Adhesive Backing, Battery Saving Design, 8.5 in x 7 in
p1830
sL1832L
VScotch Thermal Laminating Pouches, 8.5&quot; x 14&quot; Inches, 20 Pouches (TP3855-20)
p1831
sL1833L
VPilot Razor Point Marker Stick Pens, Extra Fine Point, Black Ink, Dozen Box (11001)
p1832
sL1834L
VSakura 37903 6-Piece Gelly Roll Assorted Colors Stardust Galaxy Pen Set
p1833
sL1835L
VFellowes PlushTouch Mouse Pad/Wrist Rest with FoamFusion Technology, Graphite (9252201)
p1834
sL1836L
VBrother TN580 High Yield Toner Cartridge - Retail Packaging - Black
p1835
sL1837L
VWilson Jones Heavy Weight Top-Loading Sheet Protectors, Clear, 100/Box (W21411)
p1836
sL1838L
VMesa Label Express&reg; 2&quot; x 3&quot; - Fragile - Handle with Care Shipping Labels (500 per Roll)
p1837
sL1839L
VPendaflex Earthwise 100% Recycled Colored Hanging File Folders, Letter Size (8.5 x 11), Assorted Colors, 20 per Box (35117)
p1838
sL1840L
VScotch Tape with New Designer Dispenser, Assorted Colors, 0.75 x 300 inches (106)
p1839
sL1841L
VFellowes I-Spire Series Wrist Rocker, Gray (9311801)
p1840
sL1842L
VScotch Heavy Duty Shipping Packaging Tape with Dispenser, 2 Inches x 800 Inches, Pack of 6
p1841
sL1843L
VPilot Precise V5 Stick Rolling Ball Pens, Extra Fine Point, 5-Pack, Red Ink (26012)
p1842
sL1844L
VEpson Artisan 730 Wireless All-in-One Color Inkjet Printer, Copier, Scanner (iOS/Tablet/Smartphone/AirPrint Compatible) (C11CB18201)
p1843
sL1845L
VRoyal P10 Electric Pencil Sharpener
p1844
sL1846L
VFellowes Powershred 75Cs 12-Sheet Cross-Cut Shredder (4675701)
p1845
sL1847L
VEpson Bright White Paper (8.5x11 Inches, 500 Sheets) (S041586)
p1846
sL1848L
VJumbl High-Resolution 14MP Scanner/Digitizer - Converts 35mm Negatives &amp; Slides to 14- or 22-Megapixel Digital JPEGs Using Built-In Software Interpolation - No Computer/Software Required to Operate - Features 2.4&quot; Color LCD &amp; TV Out
p1847
sL1849L
VScotch Expressions Magic Tape/ 3/4 x 300 Inches/ Classic Triangle/ Orange/ Blue/ 3-Rolls/Pack (C214-3PK-6)
p1848
sL1850L
VNeon Markers and Magnetic Dry Erase Black Board Combo Pack
p1849
sL1851L
VBrother DK-1209 Small Address Paper Label Roll - Retail Packaging
p1850
sL1852L
VBrother PT-65 P-touch Home and Hobby Labeler with LCD Screen
p1851
sL1853L
VEpson Artisan 837 Wireless All-in-One Color Inkjet Printer, Copier, Scanner, Fax, iOS/Tablet/Smartphone/AirPrint Compatible (C11CB20201)
p1852
sL1854L
VPrismacolor Verithin Colored Pencils,  Set of 36 Assorted Colors  (2428)
p1853
sL1855L
VEpson PictureMate Deluxe Viewer Edition Photo Printer
p1854
sL1856L
VBrother Black Toner Cartridge (TN-350)
p1855
sL1857L
VQuality Park Invitation Envelopes, #5.5, White, 4.375 x 5.75 inches,Box of 100 (36217)
p1856
sL1858L
V25 #000 4x8 KRAFT BUBBLE MAILERS PADDED ENVELOPES 4 x 8
p1857
sL1859L
VHP Officejet 6500A e-All-in-One (CN555AB1H)
p1858
sL1860L
VAvery Ready Index Table of Contents Dividers, 10-Tab Set (11135)
p1859
sL1861L
VHP Photosmart Premium TouchSmart Web All-in-One Printer
p1860
sL1862L
VPanasonic KX-TG6052B 5.8 GHz FHSS Expandable Digital Cordless Phone System with 2 Handsets
p1861
sL1863L
VNETGEAR Dual Mode Cordless Phone with Skype(SPH200D)
p1862
sL1864L
VBrother Printer MFC7360N Monochrome Printer with Scanner, Copier &amp; Fax and built in Networking
p1863
sL1865L
VAT&amp;T 210 Corded Phone, White, 1 Handset
p1864
sL1866L
VBrother MFC-6890CDW Professional Series Color Inkjet All-in-One Printer/Copier/Scanner/Fax with Duplex Printing and Wireless Networking
p1865
sL1867L
VSamsung ML-2010D3 Compatible Toner Cartridges (ML2010D3) for use with Samsung ML-2010, ML-2510, ML-2570, ML-2571N Printers - Black
p1866
sL1868L
VWilson Jones Heavy Duty D-Ring View Binder with Extra Durable Hinge, 2-Inch, White (W385-44WPP2)
p1867
sL1869L
VX-ACTO Spira Electric Pencil Sharpener, Black - Packaging may vary
p1868
sL1870L
Vbasyx by HON HVL521 Mesh Back Work Chair for Office or Computer Desk, Black
p1869
sL1871L
VFellowes Powershred&reg; Shredder Bags for All Personal Models, 100 Bags &amp; Ties/Carton (36052)
p1870
sL1872L
VBrother TN315M Toner Cartridge for Brother Laser Printer Toner - Retail Packaging - Magenta
p1871
sL1873L
VWilson Jones Ultra Duty Round Ring View Binder with Extra Durable Hinge, 2-Inch, White (W87908PP3)
p1872
sL1874L
VPilot Metropolitan Collection Fountain Pen, Gold Barrel, Dots Design, Medium Nib, Black Ink (91106)
p1873
sL1875L
VAvery Printable Tags with Strings for Inkjet Printers, 2 x 3.5-Inches, Pack of 96 Tags (22802)
p1874
sL1876L
VAvery&reg; NoteTabs(TM) 3 inch x 7.5 inch, Perforated, Cool Blue and Green, 6 per pack
p1875
sL1877L
VPaperPro EvoLX Desktop Metal Stapler (1433)
p1876
sL1878L
VSanford Prismacolor Premier Colored Pencil Set, 48/Tin
p1877
sL1879L
VFellowes PlushTouch Wrist Rest with FoamFusion Technology, Black (9252101)
p1878
sL1880L
VSlipstick CB680 Rubber Caster Wheels, Set of 5 (New and Improved)
p1879
sL1881L
VOoma Linx VoIP Phone and Device
p1880
sL1882L
VDarice Blank Stationery Cards and Envelopes, White 4 in. x 5 in. pack of 100 (50 each)
p1881
sL1883L
VTOPS Spiral Steno Books, 6 x 9 Inches, Gregg Rule, Greentint Paper, 60 Sheets per Book, 12 Books Per Pack (8001)
p1882
sL1884L
VBIC 4 Color &quot;Fashion Colors&quot; Medium Point Ball Pen, Assorted, 1 Pen
p1883
sL1885L
VAmerican Weigh Scales Table Top Postal Scale, Black
p1884
sL1886L
VEpson XP-310 Wireless Color Photo Printer with Scanner and Copier
p1885
sL1887L
VCanon PG-240XXL Office Products FINE Cartridge Ink
p1886
sL1888L
VDual Monitor Stand holds monitors up to 27&quot; widescreen. Uses standard Vesa mount. Clamps to Desk.
p1887
sL1889L
VFlash Furniture High Back Black Leather Executive Office Chair with Triple Paddle Control
p1888
sL1890L
VEpson DURABrite T127520 Ultra 127 Extra High-capacity Inkjet Cartridge Color Multipack-Cyan/ Magenta/ Yellow
p1889
sL1891L
VBrother PT-1090 P-Touch Home &amp; Family &quot;Simply Stylish&quot; Labeler
p1890
sL1892L
VMead Press-It Seal-It Envelopes, 9 x 12 Inch, Office Pack 25 Count (76086)
p1891
sL1893L
VPost-it Notes, 3 x 3-Inches, Ultra Collection, 14-Pads/Pack
p1892
sL1894L
VScotch Filament Tape 893 Clear, 48 mm x 55 m (Pack of 1)
p1893
sL1895L
VFive Star Hanging Locker Shelf, Red (72230)
p1894
sL1896L
VDixon Ticonderoga Pre-Sharpened with Erasers Pencils, #2, Yellow,  Box of 30 (13830)
p1895
sL1897L
VVuPoint Solutions Magic Wand Portable Scanner
p1896
sL1898L
VSharpie Permanent Markers, Fine Point, Metallic, 2 Pack (39108PP)
p1897
sL1899L
VFellowes Memory Foam Wrist Rest, Black (91782)
p1898
sL1900L
VSakura 37904 6-Piece Gelly Roll Assorted Colors Stardust Meteor Pen Set
p1899
sL1901L
VHammermill Color Laser Gloss Paper, 94 Brightness, 32lb, Letter Size, 300 Sheets per Pack (16311-0)
p1900
sL1902L
VBrownline 2013 Monthly Desk Pad Calendar, January - December, 22 x 17 Inches (C1731-13)
p1901
sL1903L
VFellowes Designer Suites Premium Keyboard Tray (8017901)
p1902
sL1904L
VHP 92/93 Ink Cartridge in Retail Packagings- Combo Pack
p1903
sL1905L
VScotch Printed Message FRAGILE HANDLE WITH CARE Box Sealing Tape 3772  White, 48 mm x 100 m, Conveniently Packaged (Pack of 1)
p1904
sL1906L
V50 #0 6x10 &quot;ValueMailers Brand&quot; POLY BUBBLE MAILERS PADDED ENVELOPES
p1905
sL1907L
VRoseArt Rainbow Swirl Jumbo Colored Pencils, 5-Count, Packaging May Vary (1020VA-48)
p1906
sL1908L
VPost-it Super Sticky Full Adhesive Notes, 3 x 3-Inches, Assorted Ultra Colors, 4-Pads/Pack
p1907
sL1909L
VCompatible HP CE285A Laser Toner Cartridges-2 Pack
p1908
sL1910L
VGel Mouse Pad w/Wrist Rest, Nonskid Base, 8-1/4 x 9-5/8 in., Purple
p1909
sL1911L
VUniversal 56806 36 by 48-Inch Cleated Chair Mat for Low and Medium Pile Carpet, Clear
p1910
sL1912L
VBoise Fireworx Color Copy/Laser Paper, 20 lb, Letter Size (8.5 x 11), Luminous Lavender, 500 Sheets (MP2201-LV)
p1911
sL1913L
VWestcott iPoint Curve Axis Electric Heavy Duty Pencil Sharpener (15512)
p1912
sL1914L
VGBC HeatSeal QuickStart H320 Pouch Laminator, Black, 12.5 Inches (1703000)
p1913
sL1915L
VCyborg G.L.I.D.E. 5 Gaming Surface
p1914
sL1916L
V3M MP300 Mobile Projector
p1915
sL1917L
VFive Star Split Pencil Cup, Purple (72260)
p1916
sL1918L
VC-Line All-Purpose Document Sorter, 2.5 x 23.5 Inch, Blue (30526)
p1917
sL1919L
VGE 29369GE1 Big Button Corded Desktop Phone with Call Waiting Caller ID and Speakerphone
p1918
sL1920L
VScotch Restickable Shapes,7/8 x 7/8 Inches, Orange, Pink, or Blue (colors may vary), 18 pieces (R100CS)
p1919
sL1921L
VScotch Permanent Double Sided Tape, 1/2 x 250 Inches 3-Pack Caddy(3136)
p1920
sL1922L
VVaultz Locking Pencil Box, 8.25 x 5.5 x 2.5 Inches, Ruby Bling with Skull (VZ01480)
p1921
sL1923L
VAvery Economy Clear Sheet Protectors, Acid Free, Box of 100 (75091)
p1922
sL1924L
VPilot Metropolitan Collection Fountain Pen, Silver Barrel, Zig-Zag Design, Medium Nib, Black Ink (91102)
p1923
sL1925L
VHP 05A Black Original LaserJet Toner Cartridge
p1924
sL1926L
VBrother Printer PTP750W Wireless Label Maker
p1925
sL1927L
VCanon Laser imageCLASS MF4770n Monochrome Printer with Scanner, Copier and Fax
p1926
sL1928L
VWilson Jones 362 Line Basic Round Ring View Binder 3 Inch Capacity, 8.5 x 11 Inch Sheet Size, Dark Blue (W362-49BL)
p1927
sL1929L
VSharpie Permanent Markers, Fine Point, Black, 2 Pack (30162PP)
p1928
sL1930L
VAvery White Self-Adhesive Reinforcement Labels, 0.25 Inch Round, Pack of 200 (5729)
p1929
sL1931L
VPaper Mate Clear Tip 0.7mm Mechanical Pencil Starter Set, Colors May Vary (56047PP)
p1930
sL1932L
V3M Easy-Adjust Keyboard Tray with Adjustable Platform, 17-3/4 Inch Track (AKT151LE)
p1931
sL1933L
VUni-ball Vision Elite BLX Series Stick Bold Point 5 Rollerball Pens, Colored Ink Pens (1832404)
p1932
sL1934L
VFive Star Wirebound Notebook, 5-Subject, 200 College-Ruled Sheets, 11 x 8.5 Inch Sheet Size, Black (72081)
p1933
sL1935L
VUnder the Roof Decorating 3-100109 Stoppy Door and Window Stop, Black
p1934
sL1936L
VLD &copy; Remanufactured Replacement Ink Cartridge for Hewlett Packard C8774WN (HP 02) Light Cyan
p1935
sL1937L
VSwingline Thermal Laminating Pouch, Letter Size, Standard Thickness, 50/Pack (3202017)
p1936
sL1938L
V3M Easy Adjust Desk Mount Dual Monitor Arm, Space Saving Design, For Monitors Up to 20 lbs and &lt;= 30 in, Black
p1937
sL1939L
VAmazonBasics Remanufactured Drum Unit Replacement for Brother DR350
p1938
sL1940L
VCanon PIXMA MX922 Wireless Color Photo Printer with Scanner, Copier and Fax
p1939
sL1941L
VBrother High-Speed Label Printer with Wireless Networking (QL710W)
p1940
sL1942L
VTsir Tech&reg; TT-LD82 Adjustable Wooden Laptop Desk with Built in Cooling Fan
p1941
sL1943L
VCanon PIXMA MP495 Wireless Inkjet Photo All-In-One (4499B026)
p1942
sL1944L
VHP 60XL CC644WN Tri-color Ink Cartridge in Retail Packaging
p1943
sL1945L
VHP Photosmart 7520 Wireless Color Photo Printer with Scanner, Copier and Fax
p1944
sL1946L
VDYMO 30252 LabelWriter Self-Adhesive Address Labels, 1 1/8- by 3 1/2-inch, White, Roll of 350
p1945
sL1947L
VEpson WorkForce 645 Wireless All-in-One Color Inkjet Printer, Copier, Scanner, Fax, iOS/Tablet/Smartphone/AirPrint Compatible (C11CB86201)
p1946
sL1948L
VEpson WorkForce WF-7010 Wide-Format Color Inkjet Printer (C11CB59201)
p1947
sL1949L
VDYMO LetraTag Personal Label Maker 11944 Silver
p1948
sL1950L
VStudy 10-Piece Compass and Geometry Kit with Shatterproof Box, Assorted Colors (897010)
p1949
sL1951L
VPendaflex Ready-Tab Hanging File Folder, Assorted Colors, 1/5 Cut Tabs, Letter, 20-Box
p1950
sL1952L
VEpson Expression Home XP-850 Wireless Color Photo Printer with Scanner, Copier &amp; Fax C11CC41201
p1951
sL1953L
VPanasonic KX-TG7741SDECT 6.0 Link-to-Cell via Bluetooth Cordless Phone with Answering System, Silver, 1 Handset
p1952
sL1954L
VScotch(R) Heavy-Duty Fasteners, 2 Sets of 1 x 3 Inches, Strips ,Black (RFD7091)
p1953
sL1955L
V3M Address Labels, White, 1 Inch x 2 5/8-inch, 10 Sheets per Pack (3300-A)
p1954
sL1956L
VSwingline Stratus Acrylic Memo &amp; Paper Clip Holder, 7 x 5 x 2.5, Clear (S7010136)
p1955
sL1957L
VFellowes P-57Cs, 8 Sheet Cross-Cut Shredder 3205701
p1956
sL1958L
V207 Retractable Gel Pens, Medium Point, Assorted Colored Ink, Set of 8
p1957
sL1959L
VAvery Adhesive Name Badges, 2.33 x 3.375 inches, White, Pack of 160 (08395)
p1958
sL1960L
VParker Quink Gel Ink Refills for Rollerball Pens, Medium Point, Blue, 2-Pack (30526PP)
p1959
sL1961L
VPilot FriXion Ball Erasable Gel Pens, Fine Point, Black Ink, Dozen Box (FX7-BLK)
p1960
sL1962L
VSmead Project Jacket Poly Assortment, Letter, 5 Per Pack (85750)
p1961
sL1963L
VBrother TN420 Toner Cartridge - Retail Packaging - Black
p1962
sL1964L
VPilot Vanishing Point Collection Retractable Fountain Pen, Blue Carbonesque with Rhodium Accents, Blue Ink, Fine Nib (60149)
p1963
sL1965L
VBrother HL2230 Monochrome Laser Printer (HL2230)
p1964
sL1966L
VSharpie 1742665 Fine Point Pen, Red, 12-Pack
p1965
sL1967L
VPentel Twist-Erase III Automatic Pencil with 2 Eraser Refills, 0.7mm, Assorted Barrels, 2 Pack (QE517BP2-K6)
p1966
sL1968L
VMead Classroom Wall Scheduler, Teal (72334)
p1967
sL1969L
VSwingline Standard Chisel Point Staples, 25,000 Staples
p1968
sL1970L
VDuck Brand 1302209 Duck 3/4 Inch by 500 Inch Invisible Tape, 3-Pack
p1969
sL1971L
VHP Officejet Pro 8600 Plus  e-All-in-One Wireless Color Printer with Scanner, Copier &amp; Fax
p1970
sL1972L
VTOPS 7500 Letr-Trim Perf-Top 5&quot; x 8&quot; White Pads, Jr. Legal Ruling, 50 Sheets/pad, 12 pack
p1971
sL1973L
VSentrySafe FHW40220 Large File Safe, Charcoal Gray
p1972
sL1974L
VEpson Stylus Photo R300 Inkjet Printer
p1973
sL1975L
VArray Card Stock, 8.5&quot;x11&quot;, White, 100 Sheets/Pkg
p1974
sL1976L
VElsa Pleather Pencil Cup, Rec Stitch (34593)
p1975
s.